; Listing generated by Microsoft (R) Optimizing Compiler Version 19.00.23026.0 

include listing.inc

INCLUDELIB MSVCRT
INCLUDELIB OLDNAMES

PUBLIC	??_SQLabel@@6BQObject@@@			; QLabel::`local vftable'
PUBLIC	??_SQLabel@@6BQPaintDevice@@@			; QLabel::`local vftable'
PUBLIC	??_SQSpinBox@@6BQObject@@@			; QSpinBox::`local vftable'
PUBLIC	??_SQSpinBox@@6BQPaintDevice@@@			; QSpinBox::`local vftable'
PUBLIC	??_SQPushButton@@6BQObject@@@			; QPushButton::`local vftable'
PUBLIC	??_SQPushButton@@6BQPaintDevice@@@		; QPushButton::`local vftable'
PUBLIC	??_R4QTimer@@6B@				; QTimer::`RTTI Complete Object Locator'
PUBLIC	??_R0?AVQTimer@@@8				; QTimer `RTTI Type Descriptor'
PUBLIC	??_R3QTimer@@8					; QTimer::`RTTI Class Hierarchy Descriptor'
PUBLIC	??_R2QTimer@@8					; QTimer::`RTTI Base Class Array'
PUBLIC	??_R1A@?0A@EA@QTimer@@8				; QTimer::`RTTI Base Class Descriptor at (0,-1,0,64)'
PUBLIC	??_R1A@?0A@EA@QObject@@8			; QObject::`RTTI Base Class Descriptor at (0,-1,0,64)'
PUBLIC	??_R0?AVQObject@@@8				; QObject `RTTI Type Descriptor'
PUBLIC	??_R3QObject@@8					; QObject::`RTTI Class Hierarchy Descriptor'
PUBLIC	??_R2QObject@@8					; QObject::`RTTI Base Class Array'
PUBLIC	??_R4QSpinBox@@6BQObject@@@			; QSpinBox::`RTTI Complete Object Locator'
PUBLIC	??_R0?AVQSpinBox@@@8				; QSpinBox `RTTI Type Descriptor'
PUBLIC	??_R3QSpinBox@@8				; QSpinBox::`RTTI Class Hierarchy Descriptor'
PUBLIC	??_R2QSpinBox@@8				; QSpinBox::`RTTI Base Class Array'
PUBLIC	??_R1A@?0A@EA@QSpinBox@@8			; QSpinBox::`RTTI Base Class Descriptor at (0,-1,0,64)'
PUBLIC	??_R1A@?0A@EA@QAbstractSpinBox@@8		; QAbstractSpinBox::`RTTI Base Class Descriptor at (0,-1,0,64)'
PUBLIC	??_SQLCDNumber@@6BQObject@@@			; QLCDNumber::`local vftable'
PUBLIC	??_R0?AVQAbstractSpinBox@@@8			; QAbstractSpinBox `RTTI Type Descriptor'
PUBLIC	??_R3QAbstractSpinBox@@8			; QAbstractSpinBox::`RTTI Class Hierarchy Descriptor'
PUBLIC	??_R2QAbstractSpinBox@@8			; QAbstractSpinBox::`RTTI Base Class Array'
PUBLIC	??_R1A@?0A@EA@QWidget@@8			; QWidget::`RTTI Base Class Descriptor at (0,-1,0,64)'
PUBLIC	??_R0?AVQWidget@@@8				; QWidget `RTTI Type Descriptor'
PUBLIC	??_SQLCDNumber@@6BQPaintDevice@@@		; QLCDNumber::`local vftable'
PUBLIC	??_R3QWidget@@8					; QWidget::`RTTI Class Hierarchy Descriptor'
PUBLIC	??_R2QWidget@@8					; QWidget::`RTTI Base Class Array'
PUBLIC	??_R1BA@?0A@EA@QPaintDevice@@8			; QPaintDevice::`RTTI Base Class Descriptor at (16,-1,0,64)'
PUBLIC	??_R0?AVQPaintDevice@@@8			; QPaintDevice `RTTI Type Descriptor'
PUBLIC	??_R3QPaintDevice@@8				; QPaintDevice::`RTTI Class Hierarchy Descriptor'
PUBLIC	??_R2QPaintDevice@@8				; QPaintDevice::`RTTI Base Class Array'
PUBLIC	??_R1A@?0A@EA@QPaintDevice@@8			; QPaintDevice::`RTTI Base Class Descriptor at (0,-1,0,64)'
PUBLIC	??_EQSpinBox@@WBA@EAAPEAXI@Z			; [thunk]:QSpinBox::`vector deleting destructor'
PUBLIC	??_R4QSpinBox@@6BQPaintDevice@@@		; QSpinBox::`RTTI Complete Object Locator'
PUBLIC	??_R4QPushButton@@6BQObject@@@			; QPushButton::`RTTI Complete Object Locator'
PUBLIC	??_R0?AVQPushButton@@@8				; QPushButton `RTTI Type Descriptor'
PUBLIC	??_R3QPushButton@@8				; QPushButton::`RTTI Class Hierarchy Descriptor'
PUBLIC	??_R2QPushButton@@8				; QPushButton::`RTTI Base Class Array'
PUBLIC	??_R1A@?0A@EA@QPushButton@@8			; QPushButton::`RTTI Base Class Descriptor at (0,-1,0,64)'
PUBLIC	??_R1A@?0A@EA@QAbstractButton@@8		; QAbstractButton::`RTTI Base Class Descriptor at (0,-1,0,64)'
PUBLIC	??_R0?AVQAbstractButton@@@8			; QAbstractButton `RTTI Type Descriptor'
PUBLIC	??_R3QAbstractButton@@8				; QAbstractButton::`RTTI Class Hierarchy Descriptor'
PUBLIC	??_R2QAbstractButton@@8				; QAbstractButton::`RTTI Base Class Array'
PUBLIC	??_EQPushButton@@WBA@EAAPEAXI@Z			; [thunk]:QPushButton::`vector deleting destructor'
PUBLIC	??_R4QPushButton@@6BQPaintDevice@@@		; QPushButton::`RTTI Complete Object Locator'
PUBLIC	??_R4QLCDNumber@@6BQObject@@@			; QLCDNumber::`RTTI Complete Object Locator'
PUBLIC	??_R0?AVQLCDNumber@@@8				; QLCDNumber `RTTI Type Descriptor'
PUBLIC	??_R3QLCDNumber@@8				; QLCDNumber::`RTTI Class Hierarchy Descriptor'
PUBLIC	??_R2QLCDNumber@@8				; QLCDNumber::`RTTI Base Class Array'
PUBLIC	??_R1A@?0A@EA@QLCDNumber@@8			; QLCDNumber::`RTTI Base Class Descriptor at (0,-1,0,64)'
PUBLIC	??_R1A@?0A@EA@QFrame@@8				; QFrame::`RTTI Base Class Descriptor at (0,-1,0,64)'
PUBLIC	??_R0?AVQFrame@@@8				; QFrame `RTTI Type Descriptor'
PUBLIC	??_R3QFrame@@8					; QFrame::`RTTI Class Hierarchy Descriptor'
PUBLIC	??_R2QFrame@@8					; QFrame::`RTTI Base Class Array'
PUBLIC	??_EQLCDNumber@@WBA@EAAPEAXI@Z			; [thunk]:QLCDNumber::`vector deleting destructor'
PUBLIC	??_R4QLCDNumber@@6BQPaintDevice@@@		; QLCDNumber::`RTTI Complete Object Locator'
PUBLIC	??_R4QLabel@@6BQObject@@@			; QLabel::`RTTI Complete Object Locator'
PUBLIC	??_R0?AVQLabel@@@8				; QLabel `RTTI Type Descriptor'
PUBLIC	??_R3QLabel@@8					; QLabel::`RTTI Class Hierarchy Descriptor'
PUBLIC	??_R2QLabel@@8					; QLabel::`RTTI Base Class Array'
PUBLIC	??_R1A@?0A@EA@QLabel@@8				; QLabel::`RTTI Base Class Descriptor at (0,-1,0,64)'
PUBLIC	??_EQLabel@@WBA@EAAPEAXI@Z			; [thunk]:QLabel::`vector deleting destructor'
PUBLIC	??_R4QLabel@@6BQPaintDevice@@@			; QLabel::`RTTI Complete Object Locator'
PUBLIC	??_SQTimer@@6B@					; QTimer::`local vftable'
EXTRN	?hitButton@QAbstractButton@@MEBA_NAEBVQPoint@@@Z:PROC ; QAbstractButton::hitButton
EXTRN	?checkStateSet@QAbstractButton@@MEAAXXZ:PROC	; QAbstractButton::checkStateSet
EXTRN	?nextCheckState@QAbstractButton@@MEAAXXZ:PROC	; QAbstractButton::nextCheckState
EXTRN	?keyReleaseEvent@QAbstractButton@@MEAAXPEAVQKeyEvent@@@Z:PROC ; QAbstractButton::keyReleaseEvent
EXTRN	?mousePressEvent@QAbstractButton@@MEAAXPEAVQMouseEvent@@@Z:PROC ; QAbstractButton::mousePressEvent
EXTRN	?mouseReleaseEvent@QAbstractButton@@MEAAXPEAVQMouseEvent@@@Z:PROC ; QAbstractButton::mouseReleaseEvent
EXTRN	?mouseMoveEvent@QAbstractButton@@MEAAXPEAVQMouseEvent@@@Z:PROC ; QAbstractButton::mouseMoveEvent
EXTRN	?changeEvent@QAbstractButton@@MEAAXPEAVQEvent@@@Z:PROC ; QAbstractButton::changeEvent
EXTRN	?timerEvent@QAbstractButton@@MEAAXPEAVQTimerEvent@@@Z:PROC ; QAbstractButton::timerEvent
EXTRN	??_GQLabel@@UEAAPEAXI@Z:PROC			; QLabel::`scalar deleting destructor'
EXTRN	??_EQLabel@@UEAAPEAXI@Z:PROC			; QLabel::`vector deleting destructor'
EXTRN	?metaObject@QLCDNumber@@UEBAPEBUQMetaObject@@XZ:PROC ; QLCDNumber::metaObject
EXTRN	?qt_metacast@QLCDNumber@@UEAAPEAXPEBD@Z:PROC	; QLCDNumber::qt_metacast
EXTRN	?qt_metacall@QLCDNumber@@UEAAHW4Call@QMetaObject@@HPEAPEAX@Z:PROC ; QLCDNumber::qt_metacall
EXTRN	?sizeHint@QLCDNumber@@UEBA?AVQSize@@XZ:PROC	; QLCDNumber::sizeHint
EXTRN	?event@QLCDNumber@@MEAA_NPEAVQEvent@@@Z:PROC	; QLCDNumber::event
EXTRN	?paintEvent@QLCDNumber@@MEAAXPEAVQPaintEvent@@@Z:PROC ; QLCDNumber::paintEvent
EXTRN	??_GQSpinBox@@UEAAPEAXI@Z:PROC			; QSpinBox::`scalar deleting destructor'
EXTRN	??_EQSpinBox@@UEAAPEAXI@Z:PROC			; QSpinBox::`vector deleting destructor'
EXTRN	?metaObject@QSpinBox@@UEBAPEBUQMetaObject@@XZ:PROC ; QSpinBox::metaObject
EXTRN	?qt_metacast@QSpinBox@@UEAAPEAXPEBD@Z:PROC	; QSpinBox::qt_metacast
EXTRN	?qt_metacall@QSpinBox@@UEAAHW4Call@QMetaObject@@HPEAPEAX@Z:PROC ; QSpinBox::qt_metacall
EXTRN	?event@QSpinBox@@MEAA_NPEAVQEvent@@@Z:PROC	; QSpinBox::event
EXTRN	?validate@QSpinBox@@MEBA?AW4State@QValidator@@AEAVQString@@AEAH@Z:PROC ; QSpinBox::validate
EXTRN	?valueFromText@QSpinBox@@MEBAHAEBVQString@@@Z:PROC ; QSpinBox::valueFromText
EXTRN	?textFromValue@QSpinBox@@MEBA?AVQString@@H@Z:PROC ; QSpinBox::textFromValue
EXTRN	?fixup@QSpinBox@@MEBAXAEAVQString@@@Z:PROC	; QSpinBox::fixup
EXTRN	??_7type_info@@6B@:BYTE				; type_info::`vftable'
EXTRN	??_GQPushButton@@UEAAPEAXI@Z:PROC		; QPushButton::`scalar deleting destructor'
EXTRN	??_EQPushButton@@UEAAPEAXI@Z:PROC		; QPushButton::`vector deleting destructor'
EXTRN	?metaObject@QLabel@@UEBAPEBUQMetaObject@@XZ:PROC ; QLabel::metaObject
EXTRN	?qt_metacast@QLabel@@UEAAPEAXPEBD@Z:PROC	; QLabel::qt_metacast
EXTRN	?qt_metacall@QLabel@@UEAAHW4Call@QMetaObject@@HPEAPEAX@Z:PROC ; QLabel::qt_metacall
EXTRN	?sizeHint@QLabel@@UEBA?AVQSize@@XZ:PROC		; QLabel::sizeHint
EXTRN	?minimumSizeHint@QLabel@@UEBA?AVQSize@@XZ:PROC	; QLabel::minimumSizeHint
EXTRN	?heightForWidth@QLabel@@UEBAHH@Z:PROC		; QLabel::heightForWidth
EXTRN	?event@QLabel@@MEAA_NPEAVQEvent@@@Z:PROC	; QLabel::event
EXTRN	?keyPressEvent@QLabel@@MEAAXPEAVQKeyEvent@@@Z:PROC ; QLabel::keyPressEvent
EXTRN	?paintEvent@QLabel@@MEAAXPEAVQPaintEvent@@@Z:PROC ; QLabel::paintEvent
EXTRN	?changeEvent@QLabel@@MEAAXPEAVQEvent@@@Z:PROC	; QLabel::changeEvent
EXTRN	?mousePressEvent@QLabel@@MEAAXPEAVQMouseEvent@@@Z:PROC ; QLabel::mousePressEvent
EXTRN	?mouseMoveEvent@QLabel@@MEAAXPEAVQMouseEvent@@@Z:PROC ; QLabel::mouseMoveEvent
EXTRN	?mouseReleaseEvent@QLabel@@MEAAXPEAVQMouseEvent@@@Z:PROC ; QLabel::mouseReleaseEvent
EXTRN	?contextMenuEvent@QLabel@@MEAAXPEAVQContextMenuEvent@@@Z:PROC ; QLabel::contextMenuEvent
EXTRN	?focusInEvent@QLabel@@MEAAXPEAVQFocusEvent@@@Z:PROC ; QLabel::focusInEvent
EXTRN	?focusOutEvent@QLabel@@MEAAXPEAVQFocusEvent@@@Z:PROC ; QLabel::focusOutEvent
EXTRN	?focusNextPrevChild@QLabel@@MEAA_N_N@Z:PROC	; QLabel::focusNextPrevChild
EXTRN	?devType@QWidget@@UEBAHXZ:PROC			; QWidget::devType
EXTRN	?changeEvent@QFrame@@MEAAXPEAVQEvent@@@Z:PROC	; QFrame::changeEvent
EXTRN	?metaObject@QTimer@@UEBAPEBUQMetaObject@@XZ:PROC ; QTimer::metaObject
EXTRN	?qt_metacast@QTimer@@UEAAPEAXPEBD@Z:PROC	; QTimer::qt_metacast
EXTRN	?qt_metacall@QTimer@@UEAAHW4Call@QMetaObject@@HPEAPEAX@Z:PROC ; QTimer::qt_metacall
EXTRN	?timerEvent@QTimer@@MEAAXPEAVQTimerEvent@@@Z:PROC ; QTimer::timerEvent
EXTRN	?setVisible@QWidget@@UEAAX_N@Z:PROC		; QWidget::setVisible
EXTRN	?minimumSizeHint@QWidget@@UEBA?AVQSize@@XZ:PROC	; QWidget::minimumSizeHint
EXTRN	?heightForWidth@QWidget@@UEBAHH@Z:PROC		; QWidget::heightForWidth
EXTRN	?hasHeightForWidth@QWidget@@UEBA_NXZ:PROC	; QWidget::hasHeightForWidth
EXTRN	?paintEngine@QWidget@@UEBAPEAVQPaintEngine@@XZ:PROC ; QWidget::paintEngine
EXTRN	?mousePressEvent@QWidget@@MEAAXPEAVQMouseEvent@@@Z:PROC ; QWidget::mousePressEvent
EXTRN	?mouseReleaseEvent@QWidget@@MEAAXPEAVQMouseEvent@@@Z:PROC ; QWidget::mouseReleaseEvent
EXTRN	?mouseDoubleClickEvent@QWidget@@MEAAXPEAVQMouseEvent@@@Z:PROC ; QWidget::mouseDoubleClickEvent
EXTRN	?mouseMoveEvent@QWidget@@MEAAXPEAVQMouseEvent@@@Z:PROC ; QWidget::mouseMoveEvent
EXTRN	?wheelEvent@QWidget@@MEAAXPEAVQWheelEvent@@@Z:PROC ; QWidget::wheelEvent
EXTRN	?keyPressEvent@QWidget@@MEAAXPEAVQKeyEvent@@@Z:PROC ; QWidget::keyPressEvent
EXTRN	?keyReleaseEvent@QWidget@@MEAAXPEAVQKeyEvent@@@Z:PROC ; QWidget::keyReleaseEvent
EXTRN	?focusInEvent@QWidget@@MEAAXPEAVQFocusEvent@@@Z:PROC ; QWidget::focusInEvent
EXTRN	?focusOutEvent@QWidget@@MEAAXPEAVQFocusEvent@@@Z:PROC ; QWidget::focusOutEvent
EXTRN	?enterEvent@QWidget@@MEAAXPEAVQEvent@@@Z:PROC	; QWidget::enterEvent
EXTRN	?leaveEvent@QWidget@@MEAAXPEAVQEvent@@@Z:PROC	; QWidget::leaveEvent
EXTRN	?moveEvent@QWidget@@MEAAXPEAVQMoveEvent@@@Z:PROC ; QWidget::moveEvent
EXTRN	?resizeEvent@QWidget@@MEAAXPEAVQResizeEvent@@@Z:PROC ; QWidget::resizeEvent
EXTRN	?closeEvent@QWidget@@MEAAXPEAVQCloseEvent@@@Z:PROC ; QWidget::closeEvent
EXTRN	?contextMenuEvent@QWidget@@MEAAXPEAVQContextMenuEvent@@@Z:PROC ; QWidget::contextMenuEvent
EXTRN	?tabletEvent@QWidget@@MEAAXPEAVQTabletEvent@@@Z:PROC ; QWidget::tabletEvent
EXTRN	?actionEvent@QWidget@@MEAAXPEAVQActionEvent@@@Z:PROC ; QWidget::actionEvent
EXTRN	?dragEnterEvent@QWidget@@MEAAXPEAVQDragEnterEvent@@@Z:PROC ; QWidget::dragEnterEvent
EXTRN	?dragMoveEvent@QWidget@@MEAAXPEAVQDragMoveEvent@@@Z:PROC ; QWidget::dragMoveEvent
EXTRN	?dragLeaveEvent@QWidget@@MEAAXPEAVQDragLeaveEvent@@@Z:PROC ; QWidget::dragLeaveEvent
EXTRN	?dropEvent@QWidget@@MEAAXPEAVQDropEvent@@@Z:PROC ; QWidget::dropEvent
EXTRN	?showEvent@QWidget@@MEAAXPEAVQShowEvent@@@Z:PROC ; QWidget::showEvent
EXTRN	?hideEvent@QWidget@@MEAAXPEAVQHideEvent@@@Z:PROC ; QWidget::hideEvent
EXTRN	?nativeEvent@QWidget@@MEAA_NAEBVQByteArray@@PEAXPEAJ@Z:PROC ; QWidget::nativeEvent
EXTRN	?metric@QWidget@@MEBAHW4PaintDeviceMetric@QPaintDevice@@@Z:PROC ; QWidget::metric
EXTRN	?initPainter@QWidget@@MEBAXPEAVQPainter@@@Z:PROC ; QWidget::initPainter
EXTRN	?redirected@QWidget@@MEBAPEAVQPaintDevice@@PEAVQPoint@@@Z:PROC ; QWidget::redirected
EXTRN	?sharedPainter@QWidget@@MEBAPEAVQPainter@@XZ:PROC ; QWidget::sharedPainter
EXTRN	?inputMethodEvent@QWidget@@MEAAXPEAVQInputMethodEvent@@@Z:PROC ; QWidget::inputMethodEvent
EXTRN	?inputMethodQuery@QWidget@@UEBA?AVQVariant@@W4InputMethodQuery@Qt@@@Z:PROC ; QWidget::inputMethodQuery
EXTRN	?focusNextPrevChild@QWidget@@MEAA_N_N@Z:PROC	; QWidget::focusNextPrevChild
EXTRN	??_GQLCDNumber@@UEAAPEAXI@Z:PROC		; QLCDNumber::`scalar deleting destructor'
EXTRN	?metaObject@QPushButton@@UEBAPEBUQMetaObject@@XZ:PROC ; QPushButton::metaObject
EXTRN	?qt_metacast@QPushButton@@UEAAPEAXPEBD@Z:PROC	; QPushButton::qt_metacast
EXTRN	??_EQLCDNumber@@UEAAPEAXI@Z:PROC		; QLCDNumber::`vector deleting destructor'
EXTRN	?qt_metacall@QPushButton@@UEAAHW4Call@QMetaObject@@HPEAPEAX@Z:PROC ; QPushButton::qt_metacall
EXTRN	?sizeHint@QPushButton@@UEBA?AVQSize@@XZ:PROC	; QPushButton::sizeHint
EXTRN	?minimumSizeHint@QPushButton@@UEBA?AVQSize@@XZ:PROC ; QPushButton::minimumSizeHint
EXTRN	?event@QPushButton@@MEAA_NPEAVQEvent@@@Z:PROC	; QPushButton::event
EXTRN	?paintEvent@QPushButton@@MEAAXPEAVQPaintEvent@@@Z:PROC ; QPushButton::paintEvent
EXTRN	?keyPressEvent@QPushButton@@MEAAXPEAVQKeyEvent@@@Z:PROC ; QPushButton::keyPressEvent
EXTRN	?focusInEvent@QPushButton@@MEAAXPEAVQFocusEvent@@@Z:PROC ; QPushButton::focusInEvent
EXTRN	?focusOutEvent@QPushButton@@MEAAXPEAVQFocusEvent@@@Z:PROC ; QPushButton::focusOutEvent
EXTRN	?event@QObject@@UEAA_NPEAVQEvent@@@Z:PROC	; QObject::event
EXTRN	?eventFilter@QObject@@UEAA_NPEAV1@PEAVQEvent@@@Z:PROC ; QObject::eventFilter
EXTRN	?timerEvent@QObject@@MEAAXPEAVQTimerEvent@@@Z:PROC ; QObject::timerEvent
EXTRN	?childEvent@QObject@@MEAAXPEAVQChildEvent@@@Z:PROC ; QObject::childEvent
EXTRN	?customEvent@QObject@@MEAAXPEAVQEvent@@@Z:PROC	; QObject::customEvent
EXTRN	?connectNotify@QObject@@MEAAXAEBVQMetaMethod@@@Z:PROC ; QObject::connectNotify
EXTRN	?disconnectNotify@QObject@@MEAAXAEBVQMetaMethod@@@Z:PROC ; QObject::disconnectNotify
EXTRN	?sizeHint@QAbstractSpinBox@@UEBA?AVQSize@@XZ:PROC ; QAbstractSpinBox::sizeHint
EXTRN	?minimumSizeHint@QAbstractSpinBox@@UEBA?AVQSize@@XZ:PROC ; QAbstractSpinBox::minimumSizeHint
EXTRN	?inputMethodQuery@QAbstractSpinBox@@UEBA?AVQVariant@@W4InputMethodQuery@Qt@@@Z:PROC ; QAbstractSpinBox::inputMethodQuery
EXTRN	?stepBy@QAbstractSpinBox@@UEAAXH@Z:PROC		; QAbstractSpinBox::stepBy
EXTRN	?clear@QAbstractSpinBox@@UEAAXXZ:PROC		; QAbstractSpinBox::clear
EXTRN	?resizeEvent@QAbstractSpinBox@@MEAAXPEAVQResizeEvent@@@Z:PROC ; QAbstractSpinBox::resizeEvent
EXTRN	?keyPressEvent@QAbstractSpinBox@@MEAAXPEAVQKeyEvent@@@Z:PROC ; QAbstractSpinBox::keyPressEvent
EXTRN	?keyReleaseEvent@QAbstractSpinBox@@MEAAXPEAVQKeyEvent@@@Z:PROC ; QAbstractSpinBox::keyReleaseEvent
EXTRN	?wheelEvent@QAbstractSpinBox@@MEAAXPEAVQWheelEvent@@@Z:PROC ; QAbstractSpinBox::wheelEvent
EXTRN	?focusInEvent@QAbstractSpinBox@@MEAAXPEAVQFocusEvent@@@Z:PROC ; QAbstractSpinBox::focusInEvent
EXTRN	?focusOutEvent@QAbstractSpinBox@@MEAAXPEAVQFocusEvent@@@Z:PROC ; QAbstractSpinBox::focusOutEvent
EXTRN	?contextMenuEvent@QAbstractSpinBox@@MEAAXPEAVQContextMenuEvent@@@Z:PROC ; QAbstractSpinBox::contextMenuEvent
EXTRN	?changeEvent@QAbstractSpinBox@@MEAAXPEAVQEvent@@@Z:PROC ; QAbstractSpinBox::changeEvent
EXTRN	?closeEvent@QAbstractSpinBox@@MEAAXPEAVQCloseEvent@@@Z:PROC ; QAbstractSpinBox::closeEvent
EXTRN	?hideEvent@QAbstractSpinBox@@MEAAXPEAVQHideEvent@@@Z:PROC ; QAbstractSpinBox::hideEvent
EXTRN	?mousePressEvent@QAbstractSpinBox@@MEAAXPEAVQMouseEvent@@@Z:PROC ; QAbstractSpinBox::mousePressEvent
EXTRN	?mouseReleaseEvent@QAbstractSpinBox@@MEAAXPEAVQMouseEvent@@@Z:PROC ; QAbstractSpinBox::mouseReleaseEvent
EXTRN	?mouseMoveEvent@QAbstractSpinBox@@MEAAXPEAVQMouseEvent@@@Z:PROC ; QAbstractSpinBox::mouseMoveEvent
EXTRN	?timerEvent@QAbstractSpinBox@@MEAAXPEAVQTimerEvent@@@Z:PROC ; QAbstractSpinBox::timerEvent
EXTRN	?paintEvent@QAbstractSpinBox@@MEAAXPEAVQPaintEvent@@@Z:PROC ; QAbstractSpinBox::paintEvent
EXTRN	?showEvent@QAbstractSpinBox@@MEAAXPEAVQShowEvent@@@Z:PROC ; QAbstractSpinBox::showEvent
EXTRN	?stepEnabled@QAbstractSpinBox@@MEBA?AV?$QFlags@W4StepEnabledFlag@QAbstractSpinBox@@@@XZ:PROC ; QAbstractSpinBox::stepEnabled
EXTRN	??_GQTimer@@UEAAPEAXI@Z:PROC			; QTimer::`scalar deleting destructor'
EXTRN	??_EQTimer@@UEAAPEAXI@Z:PROC			; QTimer::`vector deleting destructor'
;	COMDAT ??_SQTimer@@6B@
CONST	SEGMENT
??_SQTimer@@6B@ DQ FLAT:??_R4QTimer@@6B@		; QTimer::`local vftable'
	DQ	FLAT:?metaObject@QTimer@@UEBAPEBUQMetaObject@@XZ
	DQ	FLAT:?qt_metacast@QTimer@@UEAAPEAXPEBD@Z
	DQ	FLAT:?qt_metacall@QTimer@@UEAAHW4Call@QMetaObject@@HPEAPEAX@Z
	DQ	FLAT:??_EQTimer@@UEAAPEAXI@Z
	DQ	FLAT:?event@QObject@@UEAA_NPEAVQEvent@@@Z
	DQ	FLAT:?eventFilter@QObject@@UEAA_NPEAV1@PEAVQEvent@@@Z
	DQ	FLAT:?timerEvent@QTimer@@MEAAXPEAVQTimerEvent@@@Z
	DQ	FLAT:?childEvent@QObject@@MEAAXPEAVQChildEvent@@@Z
	DQ	FLAT:?customEvent@QObject@@MEAAXPEAVQEvent@@@Z
	DQ	FLAT:?connectNotify@QObject@@MEAAXAEBVQMetaMethod@@@Z
	DQ	FLAT:?disconnectNotify@QObject@@MEAAXAEBVQMetaMethod@@@Z
CONST	ENDS
;	COMDAT ??_R4QLabel@@6BQPaintDevice@@@
rdata$r	SEGMENT
??_R4QLabel@@6BQPaintDevice@@@ DD 01H			; QLabel::`RTTI Complete Object Locator'
	DD	010H
	DD	00H
	DD	imagerel ??_R0?AVQLabel@@@8
	DD	imagerel ??_R3QLabel@@8
	DD	imagerel ??_R4QLabel@@6BQPaintDevice@@@
rdata$r	ENDS
;	COMDAT ??_R1A@?0A@EA@QLabel@@8
rdata$r	SEGMENT
??_R1A@?0A@EA@QLabel@@8 DD imagerel ??_R0?AVQLabel@@@8	; QLabel::`RTTI Base Class Descriptor at (0,-1,0,64)'
	DD	04H
	DD	00H
	DD	0ffffffffH
	DD	00H
	DD	040H
	DD	imagerel ??_R3QLabel@@8
rdata$r	ENDS
;	COMDAT ??_R2QLabel@@8
rdata$r	SEGMENT
??_R2QLabel@@8 DD imagerel ??_R1A@?0A@EA@QLabel@@8	; QLabel::`RTTI Base Class Array'
	DD	imagerel ??_R1A@?0A@EA@QFrame@@8
	DD	imagerel ??_R1A@?0A@EA@QWidget@@8
	DD	imagerel ??_R1A@?0A@EA@QObject@@8
	DD	imagerel ??_R1BA@?0A@EA@QPaintDevice@@8
	ORG $+3
rdata$r	ENDS
;	COMDAT ??_R3QLabel@@8
rdata$r	SEGMENT
??_R3QLabel@@8 DD 00H					; QLabel::`RTTI Class Hierarchy Descriptor'
	DD	01H
	DD	05H
	DD	imagerel ??_R2QLabel@@8
rdata$r	ENDS
;	COMDAT ??_R0?AVQLabel@@@8
data$r	SEGMENT
??_R0?AVQLabel@@@8 DQ FLAT:??_7type_info@@6B@		; QLabel `RTTI Type Descriptor'
	DQ	0000000000000000H
	DB	'.?AVQLabel@@', 00H
data$r	ENDS
;	COMDAT ??_R4QLabel@@6BQObject@@@
rdata$r	SEGMENT
??_R4QLabel@@6BQObject@@@ DD 01H			; QLabel::`RTTI Complete Object Locator'
	DD	00H
	DD	00H
	DD	imagerel ??_R0?AVQLabel@@@8
	DD	imagerel ??_R3QLabel@@8
	DD	imagerel ??_R4QLabel@@6BQObject@@@
rdata$r	ENDS
;	COMDAT ??_R4QLCDNumber@@6BQPaintDevice@@@
rdata$r	SEGMENT
??_R4QLCDNumber@@6BQPaintDevice@@@ DD 01H		; QLCDNumber::`RTTI Complete Object Locator'
	DD	010H
	DD	00H
	DD	imagerel ??_R0?AVQLCDNumber@@@8
	DD	imagerel ??_R3QLCDNumber@@8
	DD	imagerel ??_R4QLCDNumber@@6BQPaintDevice@@@
rdata$r	ENDS
;	COMDAT ??_R2QFrame@@8
rdata$r	SEGMENT
??_R2QFrame@@8 DD imagerel ??_R1A@?0A@EA@QFrame@@8	; QFrame::`RTTI Base Class Array'
	DD	imagerel ??_R1A@?0A@EA@QWidget@@8
	DD	imagerel ??_R1A@?0A@EA@QObject@@8
	DD	imagerel ??_R1BA@?0A@EA@QPaintDevice@@8
	ORG $+3
rdata$r	ENDS
;	COMDAT ??_R3QFrame@@8
rdata$r	SEGMENT
??_R3QFrame@@8 DD 00H					; QFrame::`RTTI Class Hierarchy Descriptor'
	DD	01H
	DD	04H
	DD	imagerel ??_R2QFrame@@8
rdata$r	ENDS
;	COMDAT ??_R0?AVQFrame@@@8
data$r	SEGMENT
??_R0?AVQFrame@@@8 DQ FLAT:??_7type_info@@6B@		; QFrame `RTTI Type Descriptor'
	DQ	0000000000000000H
	DB	'.?AVQFrame@@', 00H
data$r	ENDS
;	COMDAT ??_R1A@?0A@EA@QFrame@@8
rdata$r	SEGMENT
??_R1A@?0A@EA@QFrame@@8 DD imagerel ??_R0?AVQFrame@@@8	; QFrame::`RTTI Base Class Descriptor at (0,-1,0,64)'
	DD	03H
	DD	00H
	DD	0ffffffffH
	DD	00H
	DD	040H
	DD	imagerel ??_R3QFrame@@8
rdata$r	ENDS
;	COMDAT ??_R1A@?0A@EA@QLCDNumber@@8
rdata$r	SEGMENT
??_R1A@?0A@EA@QLCDNumber@@8 DD imagerel ??_R0?AVQLCDNumber@@@8 ; QLCDNumber::`RTTI Base Class Descriptor at (0,-1,0,64)'
	DD	04H
	DD	00H
	DD	0ffffffffH
	DD	00H
	DD	040H
	DD	imagerel ??_R3QLCDNumber@@8
rdata$r	ENDS
;	COMDAT ??_R2QLCDNumber@@8
rdata$r	SEGMENT
??_R2QLCDNumber@@8 DD imagerel ??_R1A@?0A@EA@QLCDNumber@@8 ; QLCDNumber::`RTTI Base Class Array'
	DD	imagerel ??_R1A@?0A@EA@QFrame@@8
	DD	imagerel ??_R1A@?0A@EA@QWidget@@8
	DD	imagerel ??_R1A@?0A@EA@QObject@@8
	DD	imagerel ??_R1BA@?0A@EA@QPaintDevice@@8
	ORG $+3
rdata$r	ENDS
;	COMDAT ??_R3QLCDNumber@@8
rdata$r	SEGMENT
??_R3QLCDNumber@@8 DD 00H				; QLCDNumber::`RTTI Class Hierarchy Descriptor'
	DD	01H
	DD	05H
	DD	imagerel ??_R2QLCDNumber@@8
rdata$r	ENDS
;	COMDAT ??_R0?AVQLCDNumber@@@8
data$r	SEGMENT
??_R0?AVQLCDNumber@@@8 DQ FLAT:??_7type_info@@6B@	; QLCDNumber `RTTI Type Descriptor'
	DQ	0000000000000000H
	DB	'.?AVQLCDNumber@@', 00H
data$r	ENDS
;	COMDAT ??_R4QLCDNumber@@6BQObject@@@
rdata$r	SEGMENT
??_R4QLCDNumber@@6BQObject@@@ DD 01H			; QLCDNumber::`RTTI Complete Object Locator'
	DD	00H
	DD	00H
	DD	imagerel ??_R0?AVQLCDNumber@@@8
	DD	imagerel ??_R3QLCDNumber@@8
	DD	imagerel ??_R4QLCDNumber@@6BQObject@@@
rdata$r	ENDS
;	COMDAT ??_R4QPushButton@@6BQPaintDevice@@@
rdata$r	SEGMENT
??_R4QPushButton@@6BQPaintDevice@@@ DD 01H		; QPushButton::`RTTI Complete Object Locator'
	DD	010H
	DD	00H
	DD	imagerel ??_R0?AVQPushButton@@@8
	DD	imagerel ??_R3QPushButton@@8
	DD	imagerel ??_R4QPushButton@@6BQPaintDevice@@@
rdata$r	ENDS
;	COMDAT ??_R2QAbstractButton@@8
rdata$r	SEGMENT
??_R2QAbstractButton@@8 DD imagerel ??_R1A@?0A@EA@QAbstractButton@@8 ; QAbstractButton::`RTTI Base Class Array'
	DD	imagerel ??_R1A@?0A@EA@QWidget@@8
	DD	imagerel ??_R1A@?0A@EA@QObject@@8
	DD	imagerel ??_R1BA@?0A@EA@QPaintDevice@@8
	ORG $+3
rdata$r	ENDS
;	COMDAT ??_R3QAbstractButton@@8
rdata$r	SEGMENT
??_R3QAbstractButton@@8 DD 00H				; QAbstractButton::`RTTI Class Hierarchy Descriptor'
	DD	01H
	DD	04H
	DD	imagerel ??_R2QAbstractButton@@8
rdata$r	ENDS
;	COMDAT ??_R0?AVQAbstractButton@@@8
data$r	SEGMENT
??_R0?AVQAbstractButton@@@8 DQ FLAT:??_7type_info@@6B@	; QAbstractButton `RTTI Type Descriptor'
	DQ	0000000000000000H
	DB	'.?AVQAbstractButton@@', 00H
data$r	ENDS
;	COMDAT ??_R1A@?0A@EA@QAbstractButton@@8
rdata$r	SEGMENT
??_R1A@?0A@EA@QAbstractButton@@8 DD imagerel ??_R0?AVQAbstractButton@@@8 ; QAbstractButton::`RTTI Base Class Descriptor at (0,-1,0,64)'
	DD	03H
	DD	00H
	DD	0ffffffffH
	DD	00H
	DD	040H
	DD	imagerel ??_R3QAbstractButton@@8
rdata$r	ENDS
;	COMDAT ??_R1A@?0A@EA@QPushButton@@8
rdata$r	SEGMENT
??_R1A@?0A@EA@QPushButton@@8 DD imagerel ??_R0?AVQPushButton@@@8 ; QPushButton::`RTTI Base Class Descriptor at (0,-1,0,64)'
	DD	04H
	DD	00H
	DD	0ffffffffH
	DD	00H
	DD	040H
	DD	imagerel ??_R3QPushButton@@8
rdata$r	ENDS
;	COMDAT ??_R2QPushButton@@8
rdata$r	SEGMENT
??_R2QPushButton@@8 DD imagerel ??_R1A@?0A@EA@QPushButton@@8 ; QPushButton::`RTTI Base Class Array'
	DD	imagerel ??_R1A@?0A@EA@QAbstractButton@@8
	DD	imagerel ??_R1A@?0A@EA@QWidget@@8
	DD	imagerel ??_R1A@?0A@EA@QObject@@8
	DD	imagerel ??_R1BA@?0A@EA@QPaintDevice@@8
	ORG $+3
rdata$r	ENDS
;	COMDAT ??_R3QPushButton@@8
rdata$r	SEGMENT
??_R3QPushButton@@8 DD 00H				; QPushButton::`RTTI Class Hierarchy Descriptor'
	DD	01H
	DD	05H
	DD	imagerel ??_R2QPushButton@@8
rdata$r	ENDS
;	COMDAT ??_R0?AVQPushButton@@@8
data$r	SEGMENT
??_R0?AVQPushButton@@@8 DQ FLAT:??_7type_info@@6B@	; QPushButton `RTTI Type Descriptor'
	DQ	0000000000000000H
	DB	'.?AVQPushButton@@', 00H
data$r	ENDS
;	COMDAT ??_R4QPushButton@@6BQObject@@@
rdata$r	SEGMENT
??_R4QPushButton@@6BQObject@@@ DD 01H			; QPushButton::`RTTI Complete Object Locator'
	DD	00H
	DD	00H
	DD	imagerel ??_R0?AVQPushButton@@@8
	DD	imagerel ??_R3QPushButton@@8
	DD	imagerel ??_R4QPushButton@@6BQObject@@@
rdata$r	ENDS
;	COMDAT ??_R4QSpinBox@@6BQPaintDevice@@@
rdata$r	SEGMENT
??_R4QSpinBox@@6BQPaintDevice@@@ DD 01H			; QSpinBox::`RTTI Complete Object Locator'
	DD	010H
	DD	00H
	DD	imagerel ??_R0?AVQSpinBox@@@8
	DD	imagerel ??_R3QSpinBox@@8
	DD	imagerel ??_R4QSpinBox@@6BQPaintDevice@@@
rdata$r	ENDS
;	COMDAT ??_R1A@?0A@EA@QPaintDevice@@8
rdata$r	SEGMENT
??_R1A@?0A@EA@QPaintDevice@@8 DD imagerel ??_R0?AVQPaintDevice@@@8 ; QPaintDevice::`RTTI Base Class Descriptor at (0,-1,0,64)'
	DD	00H
	DD	00H
	DD	0ffffffffH
	DD	00H
	DD	040H
	DD	imagerel ??_R3QPaintDevice@@8
rdata$r	ENDS
;	COMDAT ??_R2QPaintDevice@@8
rdata$r	SEGMENT
??_R2QPaintDevice@@8 DD imagerel ??_R1A@?0A@EA@QPaintDevice@@8 ; QPaintDevice::`RTTI Base Class Array'
	ORG $+3
rdata$r	ENDS
;	COMDAT ??_R3QPaintDevice@@8
rdata$r	SEGMENT
??_R3QPaintDevice@@8 DD 00H				; QPaintDevice::`RTTI Class Hierarchy Descriptor'
	DD	00H
	DD	01H
	DD	imagerel ??_R2QPaintDevice@@8
rdata$r	ENDS
;	COMDAT ??_R0?AVQPaintDevice@@@8
data$r	SEGMENT
??_R0?AVQPaintDevice@@@8 DQ FLAT:??_7type_info@@6B@	; QPaintDevice `RTTI Type Descriptor'
	DQ	0000000000000000H
	DB	'.?AVQPaintDevice@@', 00H
data$r	ENDS
;	COMDAT ??_R1BA@?0A@EA@QPaintDevice@@8
rdata$r	SEGMENT
??_R1BA@?0A@EA@QPaintDevice@@8 DD imagerel ??_R0?AVQPaintDevice@@@8 ; QPaintDevice::`RTTI Base Class Descriptor at (16,-1,0,64)'
	DD	00H
	DD	010H
	DD	0ffffffffH
	DD	00H
	DD	040H
	DD	imagerel ??_R3QPaintDevice@@8
rdata$r	ENDS
;	COMDAT ??_R2QWidget@@8
rdata$r	SEGMENT
??_R2QWidget@@8 DD imagerel ??_R1A@?0A@EA@QWidget@@8	; QWidget::`RTTI Base Class Array'
	DD	imagerel ??_R1A@?0A@EA@QObject@@8
	DD	imagerel ??_R1BA@?0A@EA@QPaintDevice@@8
	ORG $+3
rdata$r	ENDS
;	COMDAT ??_R3QWidget@@8
rdata$r	SEGMENT
??_R3QWidget@@8 DD 00H					; QWidget::`RTTI Class Hierarchy Descriptor'
	DD	01H
	DD	03H
	DD	imagerel ??_R2QWidget@@8
rdata$r	ENDS
;	COMDAT ??_SQLCDNumber@@6BQPaintDevice@@@
CONST	SEGMENT
??_SQLCDNumber@@6BQPaintDevice@@@ DQ FLAT:??_R4QLCDNumber@@6BQPaintDevice@@@ ; QLCDNumber::`local vftable'
	DQ	FLAT:??_EQLCDNumber@@WBA@EAAPEAXI@Z
	DQ	FLAT:?devType@QWidget@@UEBAHXZ
	DQ	FLAT:?paintEngine@QWidget@@UEBAPEAVQPaintEngine@@XZ
	DQ	FLAT:?metric@QWidget@@MEBAHW4PaintDeviceMetric@QPaintDevice@@@Z
	DQ	FLAT:?initPainter@QWidget@@MEBAXPEAVQPainter@@@Z
	DQ	FLAT:?redirected@QWidget@@MEBAPEAVQPaintDevice@@PEAVQPoint@@@Z
	DQ	FLAT:?sharedPainter@QWidget@@MEBAPEAVQPainter@@XZ
CONST	ENDS
;	COMDAT ??_R0?AVQWidget@@@8
data$r	SEGMENT
??_R0?AVQWidget@@@8 DQ FLAT:??_7type_info@@6B@		; QWidget `RTTI Type Descriptor'
	DQ	0000000000000000H
	DB	'.?AVQWidget@@', 00H
data$r	ENDS
;	COMDAT ??_R1A@?0A@EA@QWidget@@8
rdata$r	SEGMENT
??_R1A@?0A@EA@QWidget@@8 DD imagerel ??_R0?AVQWidget@@@8 ; QWidget::`RTTI Base Class Descriptor at (0,-1,0,64)'
	DD	02H
	DD	00H
	DD	0ffffffffH
	DD	00H
	DD	040H
	DD	imagerel ??_R3QWidget@@8
rdata$r	ENDS
;	COMDAT ??_R2QAbstractSpinBox@@8
rdata$r	SEGMENT
??_R2QAbstractSpinBox@@8 DD imagerel ??_R1A@?0A@EA@QAbstractSpinBox@@8 ; QAbstractSpinBox::`RTTI Base Class Array'
	DD	imagerel ??_R1A@?0A@EA@QWidget@@8
	DD	imagerel ??_R1A@?0A@EA@QObject@@8
	DD	imagerel ??_R1BA@?0A@EA@QPaintDevice@@8
	ORG $+3
rdata$r	ENDS
;	COMDAT ??_R3QAbstractSpinBox@@8
rdata$r	SEGMENT
??_R3QAbstractSpinBox@@8 DD 00H				; QAbstractSpinBox::`RTTI Class Hierarchy Descriptor'
	DD	01H
	DD	04H
	DD	imagerel ??_R2QAbstractSpinBox@@8
rdata$r	ENDS
;	COMDAT ??_R0?AVQAbstractSpinBox@@@8
data$r	SEGMENT
??_R0?AVQAbstractSpinBox@@@8 DQ FLAT:??_7type_info@@6B@	; QAbstractSpinBox `RTTI Type Descriptor'
	DQ	0000000000000000H
	DB	'.?AVQAbstractSpinBox@@', 00H
data$r	ENDS
;	COMDAT ??_SQLCDNumber@@6BQObject@@@
CONST	SEGMENT
??_SQLCDNumber@@6BQObject@@@ DQ FLAT:??_R4QLCDNumber@@6BQObject@@@ ; QLCDNumber::`local vftable'
	DQ	FLAT:?metaObject@QLCDNumber@@UEBAPEBUQMetaObject@@XZ
	DQ	FLAT:?qt_metacast@QLCDNumber@@UEAAPEAXPEBD@Z
	DQ	FLAT:?qt_metacall@QLCDNumber@@UEAAHW4Call@QMetaObject@@HPEAPEAX@Z
	DQ	FLAT:??_EQLCDNumber@@UEAAPEAXI@Z
	DQ	FLAT:?event@QLCDNumber@@MEAA_NPEAVQEvent@@@Z
	DQ	FLAT:?eventFilter@QObject@@UEAA_NPEAV1@PEAVQEvent@@@Z
	DQ	FLAT:?timerEvent@QObject@@MEAAXPEAVQTimerEvent@@@Z
	DQ	FLAT:?childEvent@QObject@@MEAAXPEAVQChildEvent@@@Z
	DQ	FLAT:?customEvent@QObject@@MEAAXPEAVQEvent@@@Z
	DQ	FLAT:?connectNotify@QObject@@MEAAXAEBVQMetaMethod@@@Z
	DQ	FLAT:?disconnectNotify@QObject@@MEAAXAEBVQMetaMethod@@@Z
	DQ	FLAT:?setVisible@QWidget@@UEAAX_N@Z
	DQ	FLAT:?sizeHint@QLCDNumber@@UEBA?AVQSize@@XZ
	DQ	FLAT:?minimumSizeHint@QWidget@@UEBA?AVQSize@@XZ
	DQ	FLAT:?heightForWidth@QWidget@@UEBAHH@Z
	DQ	FLAT:?hasHeightForWidth@QWidget@@UEBA_NXZ
	DQ	FLAT:?mousePressEvent@QWidget@@MEAAXPEAVQMouseEvent@@@Z
	DQ	FLAT:?mouseReleaseEvent@QWidget@@MEAAXPEAVQMouseEvent@@@Z
	DQ	FLAT:?mouseDoubleClickEvent@QWidget@@MEAAXPEAVQMouseEvent@@@Z
	DQ	FLAT:?mouseMoveEvent@QWidget@@MEAAXPEAVQMouseEvent@@@Z
	DQ	FLAT:?wheelEvent@QWidget@@MEAAXPEAVQWheelEvent@@@Z
	DQ	FLAT:?keyPressEvent@QWidget@@MEAAXPEAVQKeyEvent@@@Z
	DQ	FLAT:?keyReleaseEvent@QWidget@@MEAAXPEAVQKeyEvent@@@Z
	DQ	FLAT:?focusInEvent@QWidget@@MEAAXPEAVQFocusEvent@@@Z
	DQ	FLAT:?focusOutEvent@QWidget@@MEAAXPEAVQFocusEvent@@@Z
	DQ	FLAT:?enterEvent@QWidget@@MEAAXPEAVQEvent@@@Z
	DQ	FLAT:?leaveEvent@QWidget@@MEAAXPEAVQEvent@@@Z
	DQ	FLAT:?paintEvent@QLCDNumber@@MEAAXPEAVQPaintEvent@@@Z
	DQ	FLAT:?moveEvent@QWidget@@MEAAXPEAVQMoveEvent@@@Z
	DQ	FLAT:?resizeEvent@QWidget@@MEAAXPEAVQResizeEvent@@@Z
	DQ	FLAT:?closeEvent@QWidget@@MEAAXPEAVQCloseEvent@@@Z
	DQ	FLAT:?contextMenuEvent@QWidget@@MEAAXPEAVQContextMenuEvent@@@Z
	DQ	FLAT:?tabletEvent@QWidget@@MEAAXPEAVQTabletEvent@@@Z
	DQ	FLAT:?actionEvent@QWidget@@MEAAXPEAVQActionEvent@@@Z
	DQ	FLAT:?dragEnterEvent@QWidget@@MEAAXPEAVQDragEnterEvent@@@Z
	DQ	FLAT:?dragMoveEvent@QWidget@@MEAAXPEAVQDragMoveEvent@@@Z
	DQ	FLAT:?dragLeaveEvent@QWidget@@MEAAXPEAVQDragLeaveEvent@@@Z
	DQ	FLAT:?dropEvent@QWidget@@MEAAXPEAVQDropEvent@@@Z
	DQ	FLAT:?showEvent@QWidget@@MEAAXPEAVQShowEvent@@@Z
	DQ	FLAT:?hideEvent@QWidget@@MEAAXPEAVQHideEvent@@@Z
	DQ	FLAT:?nativeEvent@QWidget@@MEAA_NAEBVQByteArray@@PEAXPEAJ@Z
	DQ	FLAT:?changeEvent@QFrame@@MEAAXPEAVQEvent@@@Z
	DQ	FLAT:?inputMethodEvent@QWidget@@MEAAXPEAVQInputMethodEvent@@@Z
	DQ	FLAT:?inputMethodQuery@QWidget@@UEBA?AVQVariant@@W4InputMethodQuery@Qt@@@Z
	DQ	FLAT:?focusNextPrevChild@QWidget@@MEAA_N_N@Z
CONST	ENDS
;	COMDAT ??_R1A@?0A@EA@QAbstractSpinBox@@8
rdata$r	SEGMENT
??_R1A@?0A@EA@QAbstractSpinBox@@8 DD imagerel ??_R0?AVQAbstractSpinBox@@@8 ; QAbstractSpinBox::`RTTI Base Class Descriptor at (0,-1,0,64)'
	DD	03H
	DD	00H
	DD	0ffffffffH
	DD	00H
	DD	040H
	DD	imagerel ??_R3QAbstractSpinBox@@8
rdata$r	ENDS
;	COMDAT ??_R1A@?0A@EA@QSpinBox@@8
rdata$r	SEGMENT
??_R1A@?0A@EA@QSpinBox@@8 DD imagerel ??_R0?AVQSpinBox@@@8 ; QSpinBox::`RTTI Base Class Descriptor at (0,-1,0,64)'
	DD	04H
	DD	00H
	DD	0ffffffffH
	DD	00H
	DD	040H
	DD	imagerel ??_R3QSpinBox@@8
rdata$r	ENDS
;	COMDAT ??_R2QSpinBox@@8
rdata$r	SEGMENT
??_R2QSpinBox@@8 DD imagerel ??_R1A@?0A@EA@QSpinBox@@8	; QSpinBox::`RTTI Base Class Array'
	DD	imagerel ??_R1A@?0A@EA@QAbstractSpinBox@@8
	DD	imagerel ??_R1A@?0A@EA@QWidget@@8
	DD	imagerel ??_R1A@?0A@EA@QObject@@8
	DD	imagerel ??_R1BA@?0A@EA@QPaintDevice@@8
	ORG $+3
rdata$r	ENDS
;	COMDAT ??_R3QSpinBox@@8
rdata$r	SEGMENT
??_R3QSpinBox@@8 DD 00H					; QSpinBox::`RTTI Class Hierarchy Descriptor'
	DD	01H
	DD	05H
	DD	imagerel ??_R2QSpinBox@@8
rdata$r	ENDS
;	COMDAT ??_R0?AVQSpinBox@@@8
data$r	SEGMENT
??_R0?AVQSpinBox@@@8 DQ FLAT:??_7type_info@@6B@		; QSpinBox `RTTI Type Descriptor'
	DQ	0000000000000000H
	DB	'.?AVQSpinBox@@', 00H
data$r	ENDS
;	COMDAT ??_R4QSpinBox@@6BQObject@@@
rdata$r	SEGMENT
??_R4QSpinBox@@6BQObject@@@ DD 01H			; QSpinBox::`RTTI Complete Object Locator'
	DD	00H
	DD	00H
	DD	imagerel ??_R0?AVQSpinBox@@@8
	DD	imagerel ??_R3QSpinBox@@8
	DD	imagerel ??_R4QSpinBox@@6BQObject@@@
rdata$r	ENDS
CONST	SEGMENT
?qt_meta_stringdata_TimingShutdown@@3Uqt_meta_stringdata_TimingShutdown_t@@B DD 0ffffffffH ; qt_meta_stringdata_TimingShutdown
	DD	0eH
	DD	00H
	ORG $+4
	DQ	0000000000000060H
	DD	0ffffffffH
	DD	07H
	DD	00H
	ORG $+4
	DQ	0000000000000057H
	DD	0ffffffffH
	DD	00H
	DD	00H
	ORG $+4
	DQ	0000000000000047H
	DD	0ffffffffH
	DD	09H
	DD	00H
	ORG $+4
	DQ	0000000000000030H
	DB	'TimingShutdown', 00H, 'exitPro', 00H, 00H, 'timeEvent', 00H
	ORG $+6
	ORG $+8
?qt_meta_data_TimingShutdown@@3QBIB DD 07H		; qt_meta_data_TimingShutdown
	DD	00H
	DD	00H
	DD	00H
	DD	02H
	DD	0eH
	DD	00H
	DD	00H
	DD	00H
	DD	00H
	DD	00H
	DD	00H
	DD	00H
	DD	01H
	DD	01H
	DD	00H
	DD	018H
	DD	02H
	DD	06H
	DD	03H
	DD	00H
	DD	019H
	DD	02H
	DD	08H
	DD	02bH
	DD	02bH
	DD	00H
CONST	ENDS
;	COMDAT ??_R2QObject@@8
rdata$r	SEGMENT
??_R2QObject@@8 DD imagerel ??_R1A@?0A@EA@QObject@@8	; QObject::`RTTI Base Class Array'
	ORG $+3
rdata$r	ENDS
;	COMDAT ??_R3QObject@@8
rdata$r	SEGMENT
??_R3QObject@@8 DD 00H					; QObject::`RTTI Class Hierarchy Descriptor'
	DD	00H
	DD	01H
	DD	imagerel ??_R2QObject@@8
rdata$r	ENDS
;	COMDAT ??_R0?AVQObject@@@8
data$r	SEGMENT
??_R0?AVQObject@@@8 DQ FLAT:??_7type_info@@6B@		; QObject `RTTI Type Descriptor'
	DQ	0000000000000000H
	DB	'.?AVQObject@@', 00H
data$r	ENDS
;	COMDAT ??_R1A@?0A@EA@QObject@@8
rdata$r	SEGMENT
??_R1A@?0A@EA@QObject@@8 DD imagerel ??_R0?AVQObject@@@8 ; QObject::`RTTI Base Class Descriptor at (0,-1,0,64)'
	DD	00H
	DD	00H
	DD	0ffffffffH
	DD	00H
	DD	040H
	DD	imagerel ??_R3QObject@@8
rdata$r	ENDS
;	COMDAT ??_R1A@?0A@EA@QTimer@@8
rdata$r	SEGMENT
??_R1A@?0A@EA@QTimer@@8 DD imagerel ??_R0?AVQTimer@@@8	; QTimer::`RTTI Base Class Descriptor at (0,-1,0,64)'
	DD	01H
	DD	00H
	DD	0ffffffffH
	DD	00H
	DD	040H
	DD	imagerel ??_R3QTimer@@8
rdata$r	ENDS
;	COMDAT ??_R2QTimer@@8
rdata$r	SEGMENT
??_R2QTimer@@8 DD imagerel ??_R1A@?0A@EA@QTimer@@8	; QTimer::`RTTI Base Class Array'
	DD	imagerel ??_R1A@?0A@EA@QObject@@8
	ORG $+3
rdata$r	ENDS
;	COMDAT ??_R3QTimer@@8
rdata$r	SEGMENT
??_R3QTimer@@8 DD 00H					; QTimer::`RTTI Class Hierarchy Descriptor'
	DD	00H
	DD	02H
	DD	imagerel ??_R2QTimer@@8
rdata$r	ENDS
;	COMDAT ??_R0?AVQTimer@@@8
data$r	SEGMENT
??_R0?AVQTimer@@@8 DQ FLAT:??_7type_info@@6B@		; QTimer `RTTI Type Descriptor'
	DQ	0000000000000000H
	DB	'.?AVQTimer@@', 00H
data$r	ENDS
;	COMDAT ??_R4QTimer@@6B@
rdata$r	SEGMENT
??_R4QTimer@@6B@ DD 01H					; QTimer::`RTTI Complete Object Locator'
	DD	00H
	DD	00H
	DD	imagerel ??_R0?AVQTimer@@@8
	DD	imagerel ??_R3QTimer@@8
	DD	imagerel ??_R4QTimer@@6B@
rdata$r	ENDS
;	COMDAT ??_SQPushButton@@6BQPaintDevice@@@
CONST	SEGMENT
??_SQPushButton@@6BQPaintDevice@@@ DQ FLAT:??_R4QPushButton@@6BQPaintDevice@@@ ; QPushButton::`local vftable'
	DQ	FLAT:??_EQPushButton@@WBA@EAAPEAXI@Z
	DQ	FLAT:?devType@QWidget@@UEBAHXZ
	DQ	FLAT:?paintEngine@QWidget@@UEBAPEAVQPaintEngine@@XZ
	DQ	FLAT:?metric@QWidget@@MEBAHW4PaintDeviceMetric@QPaintDevice@@@Z
	DQ	FLAT:?initPainter@QWidget@@MEBAXPEAVQPainter@@@Z
	DQ	FLAT:?redirected@QWidget@@MEBAPEAVQPaintDevice@@PEAVQPoint@@@Z
	DQ	FLAT:?sharedPainter@QWidget@@MEBAPEAVQPainter@@XZ
CONST	ENDS
;	COMDAT ??_SQPushButton@@6BQObject@@@
CONST	SEGMENT
??_SQPushButton@@6BQObject@@@ DQ FLAT:??_R4QPushButton@@6BQObject@@@ ; QPushButton::`local vftable'
	DQ	FLAT:?metaObject@QPushButton@@UEBAPEBUQMetaObject@@XZ
	DQ	FLAT:?qt_metacast@QPushButton@@UEAAPEAXPEBD@Z
	DQ	FLAT:?qt_metacall@QPushButton@@UEAAHW4Call@QMetaObject@@HPEAPEAX@Z
	DQ	FLAT:??_EQPushButton@@UEAAPEAXI@Z
	DQ	FLAT:?event@QPushButton@@MEAA_NPEAVQEvent@@@Z
	DQ	FLAT:?eventFilter@QObject@@UEAA_NPEAV1@PEAVQEvent@@@Z
	DQ	FLAT:?timerEvent@QAbstractButton@@MEAAXPEAVQTimerEvent@@@Z
	DQ	FLAT:?childEvent@QObject@@MEAAXPEAVQChildEvent@@@Z
	DQ	FLAT:?customEvent@QObject@@MEAAXPEAVQEvent@@@Z
	DQ	FLAT:?connectNotify@QObject@@MEAAXAEBVQMetaMethod@@@Z
	DQ	FLAT:?disconnectNotify@QObject@@MEAAXAEBVQMetaMethod@@@Z
	DQ	FLAT:?setVisible@QWidget@@UEAAX_N@Z
	DQ	FLAT:?sizeHint@QPushButton@@UEBA?AVQSize@@XZ
	DQ	FLAT:?minimumSizeHint@QPushButton@@UEBA?AVQSize@@XZ
	DQ	FLAT:?heightForWidth@QWidget@@UEBAHH@Z
	DQ	FLAT:?hasHeightForWidth@QWidget@@UEBA_NXZ
	DQ	FLAT:?mousePressEvent@QAbstractButton@@MEAAXPEAVQMouseEvent@@@Z
	DQ	FLAT:?mouseReleaseEvent@QAbstractButton@@MEAAXPEAVQMouseEvent@@@Z
	DQ	FLAT:?mouseDoubleClickEvent@QWidget@@MEAAXPEAVQMouseEvent@@@Z
	DQ	FLAT:?mouseMoveEvent@QAbstractButton@@MEAAXPEAVQMouseEvent@@@Z
	DQ	FLAT:?wheelEvent@QWidget@@MEAAXPEAVQWheelEvent@@@Z
	DQ	FLAT:?keyPressEvent@QPushButton@@MEAAXPEAVQKeyEvent@@@Z
	DQ	FLAT:?keyReleaseEvent@QAbstractButton@@MEAAXPEAVQKeyEvent@@@Z
	DQ	FLAT:?focusInEvent@QPushButton@@MEAAXPEAVQFocusEvent@@@Z
	DQ	FLAT:?focusOutEvent@QPushButton@@MEAAXPEAVQFocusEvent@@@Z
	DQ	FLAT:?enterEvent@QWidget@@MEAAXPEAVQEvent@@@Z
	DQ	FLAT:?leaveEvent@QWidget@@MEAAXPEAVQEvent@@@Z
	DQ	FLAT:?paintEvent@QPushButton@@MEAAXPEAVQPaintEvent@@@Z
	DQ	FLAT:?moveEvent@QWidget@@MEAAXPEAVQMoveEvent@@@Z
	DQ	FLAT:?resizeEvent@QWidget@@MEAAXPEAVQResizeEvent@@@Z
	DQ	FLAT:?closeEvent@QWidget@@MEAAXPEAVQCloseEvent@@@Z
	DQ	FLAT:?contextMenuEvent@QWidget@@MEAAXPEAVQContextMenuEvent@@@Z
	DQ	FLAT:?tabletEvent@QWidget@@MEAAXPEAVQTabletEvent@@@Z
	DQ	FLAT:?actionEvent@QWidget@@MEAAXPEAVQActionEvent@@@Z
	DQ	FLAT:?dragEnterEvent@QWidget@@MEAAXPEAVQDragEnterEvent@@@Z
	DQ	FLAT:?dragMoveEvent@QWidget@@MEAAXPEAVQDragMoveEvent@@@Z
	DQ	FLAT:?dragLeaveEvent@QWidget@@MEAAXPEAVQDragLeaveEvent@@@Z
	DQ	FLAT:?dropEvent@QWidget@@MEAAXPEAVQDropEvent@@@Z
	DQ	FLAT:?showEvent@QWidget@@MEAAXPEAVQShowEvent@@@Z
	DQ	FLAT:?hideEvent@QWidget@@MEAAXPEAVQHideEvent@@@Z
	DQ	FLAT:?nativeEvent@QWidget@@MEAA_NAEBVQByteArray@@PEAXPEAJ@Z
	DQ	FLAT:?changeEvent@QAbstractButton@@MEAAXPEAVQEvent@@@Z
	DQ	FLAT:?inputMethodEvent@QWidget@@MEAAXPEAVQInputMethodEvent@@@Z
	DQ	FLAT:?inputMethodQuery@QWidget@@UEBA?AVQVariant@@W4InputMethodQuery@Qt@@@Z
	DQ	FLAT:?focusNextPrevChild@QWidget@@MEAA_N_N@Z
	DQ	FLAT:?hitButton@QAbstractButton@@MEBA_NAEBVQPoint@@@Z
	DQ	FLAT:?checkStateSet@QAbstractButton@@MEAAXXZ
	DQ	FLAT:?nextCheckState@QAbstractButton@@MEAAXXZ
CONST	ENDS
;	COMDAT ??_SQSpinBox@@6BQPaintDevice@@@
CONST	SEGMENT
??_SQSpinBox@@6BQPaintDevice@@@ DQ FLAT:??_R4QSpinBox@@6BQPaintDevice@@@ ; QSpinBox::`local vftable'
	DQ	FLAT:??_EQSpinBox@@WBA@EAAPEAXI@Z
	DQ	FLAT:?devType@QWidget@@UEBAHXZ
	DQ	FLAT:?paintEngine@QWidget@@UEBAPEAVQPaintEngine@@XZ
	DQ	FLAT:?metric@QWidget@@MEBAHW4PaintDeviceMetric@QPaintDevice@@@Z
	DQ	FLAT:?initPainter@QWidget@@MEBAXPEAVQPainter@@@Z
	DQ	FLAT:?redirected@QWidget@@MEBAPEAVQPaintDevice@@PEAVQPoint@@@Z
	DQ	FLAT:?sharedPainter@QWidget@@MEBAPEAVQPainter@@XZ
CONST	ENDS
;	COMDAT ??_SQSpinBox@@6BQObject@@@
CONST	SEGMENT
??_SQSpinBox@@6BQObject@@@ DQ FLAT:??_R4QSpinBox@@6BQObject@@@ ; QSpinBox::`local vftable'
	DQ	FLAT:?metaObject@QSpinBox@@UEBAPEBUQMetaObject@@XZ
	DQ	FLAT:?qt_metacast@QSpinBox@@UEAAPEAXPEBD@Z
	DQ	FLAT:?qt_metacall@QSpinBox@@UEAAHW4Call@QMetaObject@@HPEAPEAX@Z
	DQ	FLAT:??_EQSpinBox@@UEAAPEAXI@Z
	DQ	FLAT:?event@QSpinBox@@MEAA_NPEAVQEvent@@@Z
	DQ	FLAT:?eventFilter@QObject@@UEAA_NPEAV1@PEAVQEvent@@@Z
	DQ	FLAT:?timerEvent@QAbstractSpinBox@@MEAAXPEAVQTimerEvent@@@Z
	DQ	FLAT:?childEvent@QObject@@MEAAXPEAVQChildEvent@@@Z
	DQ	FLAT:?customEvent@QObject@@MEAAXPEAVQEvent@@@Z
	DQ	FLAT:?connectNotify@QObject@@MEAAXAEBVQMetaMethod@@@Z
	DQ	FLAT:?disconnectNotify@QObject@@MEAAXAEBVQMetaMethod@@@Z
	DQ	FLAT:?setVisible@QWidget@@UEAAX_N@Z
	DQ	FLAT:?sizeHint@QAbstractSpinBox@@UEBA?AVQSize@@XZ
	DQ	FLAT:?minimumSizeHint@QAbstractSpinBox@@UEBA?AVQSize@@XZ
	DQ	FLAT:?heightForWidth@QWidget@@UEBAHH@Z
	DQ	FLAT:?hasHeightForWidth@QWidget@@UEBA_NXZ
	DQ	FLAT:?mousePressEvent@QAbstractSpinBox@@MEAAXPEAVQMouseEvent@@@Z
	DQ	FLAT:?mouseReleaseEvent@QAbstractSpinBox@@MEAAXPEAVQMouseEvent@@@Z
	DQ	FLAT:?mouseDoubleClickEvent@QWidget@@MEAAXPEAVQMouseEvent@@@Z
	DQ	FLAT:?mouseMoveEvent@QAbstractSpinBox@@MEAAXPEAVQMouseEvent@@@Z
	DQ	FLAT:?wheelEvent@QAbstractSpinBox@@MEAAXPEAVQWheelEvent@@@Z
	DQ	FLAT:?keyPressEvent@QAbstractSpinBox@@MEAAXPEAVQKeyEvent@@@Z
	DQ	FLAT:?keyReleaseEvent@QAbstractSpinBox@@MEAAXPEAVQKeyEvent@@@Z
	DQ	FLAT:?focusInEvent@QAbstractSpinBox@@MEAAXPEAVQFocusEvent@@@Z
	DQ	FLAT:?focusOutEvent@QAbstractSpinBox@@MEAAXPEAVQFocusEvent@@@Z
	DQ	FLAT:?enterEvent@QWidget@@MEAAXPEAVQEvent@@@Z
	DQ	FLAT:?leaveEvent@QWidget@@MEAAXPEAVQEvent@@@Z
	DQ	FLAT:?paintEvent@QAbstractSpinBox@@MEAAXPEAVQPaintEvent@@@Z
	DQ	FLAT:?moveEvent@QWidget@@MEAAXPEAVQMoveEvent@@@Z
	DQ	FLAT:?resizeEvent@QAbstractSpinBox@@MEAAXPEAVQResizeEvent@@@Z
	DQ	FLAT:?closeEvent@QAbstractSpinBox@@MEAAXPEAVQCloseEvent@@@Z
	DQ	FLAT:?contextMenuEvent@QAbstractSpinBox@@MEAAXPEAVQContextMenuEvent@@@Z
	DQ	FLAT:?tabletEvent@QWidget@@MEAAXPEAVQTabletEvent@@@Z
	DQ	FLAT:?actionEvent@QWidget@@MEAAXPEAVQActionEvent@@@Z
	DQ	FLAT:?dragEnterEvent@QWidget@@MEAAXPEAVQDragEnterEvent@@@Z
	DQ	FLAT:?dragMoveEvent@QWidget@@MEAAXPEAVQDragMoveEvent@@@Z
	DQ	FLAT:?dragLeaveEvent@QWidget@@MEAAXPEAVQDragLeaveEvent@@@Z
	DQ	FLAT:?dropEvent@QWidget@@MEAAXPEAVQDropEvent@@@Z
	DQ	FLAT:?showEvent@QAbstractSpinBox@@MEAAXPEAVQShowEvent@@@Z
	DQ	FLAT:?hideEvent@QAbstractSpinBox@@MEAAXPEAVQHideEvent@@@Z
	DQ	FLAT:?nativeEvent@QWidget@@MEAA_NAEBVQByteArray@@PEAXPEAJ@Z
	DQ	FLAT:?changeEvent@QAbstractSpinBox@@MEAAXPEAVQEvent@@@Z
	DQ	FLAT:?inputMethodEvent@QWidget@@MEAAXPEAVQInputMethodEvent@@@Z
	DQ	FLAT:?inputMethodQuery@QAbstractSpinBox@@UEBA?AVQVariant@@W4InputMethodQuery@Qt@@@Z
	DQ	FLAT:?focusNextPrevChild@QWidget@@MEAA_N_N@Z
	DQ	FLAT:?validate@QSpinBox@@MEBA?AW4State@QValidator@@AEAVQString@@AEAH@Z
	DQ	FLAT:?fixup@QSpinBox@@MEBAXAEAVQString@@@Z
	DQ	FLAT:?stepBy@QAbstractSpinBox@@UEAAXH@Z
	DQ	FLAT:?clear@QAbstractSpinBox@@UEAAXXZ
	DQ	FLAT:?stepEnabled@QAbstractSpinBox@@MEBA?AV?$QFlags@W4StepEnabledFlag@QAbstractSpinBox@@@@XZ
	DQ	FLAT:?valueFromText@QSpinBox@@MEBAHAEBVQString@@@Z
	DQ	FLAT:?textFromValue@QSpinBox@@MEBA?AVQString@@H@Z
CONST	ENDS
;	COMDAT ??_SQLabel@@6BQPaintDevice@@@
CONST	SEGMENT
??_SQLabel@@6BQPaintDevice@@@ DQ FLAT:??_R4QLabel@@6BQPaintDevice@@@ ; QLabel::`local vftable'
	DQ	FLAT:??_EQLabel@@WBA@EAAPEAXI@Z
	DQ	FLAT:?devType@QWidget@@UEBAHXZ
	DQ	FLAT:?paintEngine@QWidget@@UEBAPEAVQPaintEngine@@XZ
	DQ	FLAT:?metric@QWidget@@MEBAHW4PaintDeviceMetric@QPaintDevice@@@Z
	DQ	FLAT:?initPainter@QWidget@@MEBAXPEAVQPainter@@@Z
	DQ	FLAT:?redirected@QWidget@@MEBAPEAVQPaintDevice@@PEAVQPoint@@@Z
	DQ	FLAT:?sharedPainter@QWidget@@MEBAPEAVQPainter@@XZ
CONST	ENDS
;	COMDAT ??_SQLabel@@6BQObject@@@
CONST	SEGMENT
??_SQLabel@@6BQObject@@@ DQ FLAT:??_R4QLabel@@6BQObject@@@ ; QLabel::`local vftable'
	DQ	FLAT:?metaObject@QLabel@@UEBAPEBUQMetaObject@@XZ
	DQ	FLAT:?qt_metacast@QLabel@@UEAAPEAXPEBD@Z
	DQ	FLAT:?qt_metacall@QLabel@@UEAAHW4Call@QMetaObject@@HPEAPEAX@Z
	DQ	FLAT:??_EQLabel@@UEAAPEAXI@Z
	DQ	FLAT:?event@QLabel@@MEAA_NPEAVQEvent@@@Z
	DQ	FLAT:?eventFilter@QObject@@UEAA_NPEAV1@PEAVQEvent@@@Z
	DQ	FLAT:?timerEvent@QObject@@MEAAXPEAVQTimerEvent@@@Z
	DQ	FLAT:?childEvent@QObject@@MEAAXPEAVQChildEvent@@@Z
	DQ	FLAT:?customEvent@QObject@@MEAAXPEAVQEvent@@@Z
	DQ	FLAT:?connectNotify@QObject@@MEAAXAEBVQMetaMethod@@@Z
	DQ	FLAT:?disconnectNotify@QObject@@MEAAXAEBVQMetaMethod@@@Z
	DQ	FLAT:?setVisible@QWidget@@UEAAX_N@Z
	DQ	FLAT:?sizeHint@QLabel@@UEBA?AVQSize@@XZ
	DQ	FLAT:?minimumSizeHint@QLabel@@UEBA?AVQSize@@XZ
	DQ	FLAT:?heightForWidth@QLabel@@UEBAHH@Z
	DQ	FLAT:?hasHeightForWidth@QWidget@@UEBA_NXZ
	DQ	FLAT:?mousePressEvent@QLabel@@MEAAXPEAVQMouseEvent@@@Z
	DQ	FLAT:?mouseReleaseEvent@QLabel@@MEAAXPEAVQMouseEvent@@@Z
	DQ	FLAT:?mouseDoubleClickEvent@QWidget@@MEAAXPEAVQMouseEvent@@@Z
	DQ	FLAT:?mouseMoveEvent@QLabel@@MEAAXPEAVQMouseEvent@@@Z
	DQ	FLAT:?wheelEvent@QWidget@@MEAAXPEAVQWheelEvent@@@Z
	DQ	FLAT:?keyPressEvent@QLabel@@MEAAXPEAVQKeyEvent@@@Z
	DQ	FLAT:?keyReleaseEvent@QWidget@@MEAAXPEAVQKeyEvent@@@Z
	DQ	FLAT:?focusInEvent@QLabel@@MEAAXPEAVQFocusEvent@@@Z
	DQ	FLAT:?focusOutEvent@QLabel@@MEAAXPEAVQFocusEvent@@@Z
	DQ	FLAT:?enterEvent@QWidget@@MEAAXPEAVQEvent@@@Z
	DQ	FLAT:?leaveEvent@QWidget@@MEAAXPEAVQEvent@@@Z
	DQ	FLAT:?paintEvent@QLabel@@MEAAXPEAVQPaintEvent@@@Z
	DQ	FLAT:?moveEvent@QWidget@@MEAAXPEAVQMoveEvent@@@Z
	DQ	FLAT:?resizeEvent@QWidget@@MEAAXPEAVQResizeEvent@@@Z
	DQ	FLAT:?closeEvent@QWidget@@MEAAXPEAVQCloseEvent@@@Z
	DQ	FLAT:?contextMenuEvent@QLabel@@MEAAXPEAVQContextMenuEvent@@@Z
	DQ	FLAT:?tabletEvent@QWidget@@MEAAXPEAVQTabletEvent@@@Z
	DQ	FLAT:?actionEvent@QWidget@@MEAAXPEAVQActionEvent@@@Z
	DQ	FLAT:?dragEnterEvent@QWidget@@MEAAXPEAVQDragEnterEvent@@@Z
	DQ	FLAT:?dragMoveEvent@QWidget@@MEAAXPEAVQDragMoveEvent@@@Z
	DQ	FLAT:?dragLeaveEvent@QWidget@@MEAAXPEAVQDragLeaveEvent@@@Z
	DQ	FLAT:?dropEvent@QWidget@@MEAAXPEAVQDropEvent@@@Z
	DQ	FLAT:?showEvent@QWidget@@MEAAXPEAVQShowEvent@@@Z
	DQ	FLAT:?hideEvent@QWidget@@MEAAXPEAVQHideEvent@@@Z
	DQ	FLAT:?nativeEvent@QWidget@@MEAA_NAEBVQByteArray@@PEAXPEAJ@Z
	DQ	FLAT:?changeEvent@QLabel@@MEAAXPEAVQEvent@@@Z
	DQ	FLAT:?inputMethodEvent@QWidget@@MEAAXPEAVQInputMethodEvent@@@Z
	DQ	FLAT:?inputMethodQuery@QWidget@@UEBA?AVQVariant@@W4InputMethodQuery@Qt@@@Z
	DQ	FLAT:?focusNextPrevChild@QLabel@@MEAA_N_N@Z
CONST	ENDS
PUBLIC	?metaObject@TimingShutdown@@UEBAPEBUQMetaObject@@XZ ; TimingShutdown::metaObject
PUBLIC	?qt_metacast@TimingShutdown@@UEAAPEAXPEBD@Z	; TimingShutdown::qt_metacast
PUBLIC	?qt_metacall@TimingShutdown@@UEAAHW4Call@QMetaObject@@HPEAPEAX@Z ; TimingShutdown::qt_metacall
PUBLIC	?qt_static_metacall@TimingShutdown@@CAXPEAVQObject@@W4Call@QMetaObject@@HPEAPEAX@Z ; TimingShutdown::qt_static_metacall
PUBLIC	?exitPro@TimingShutdown@@QEAAXXZ		; TimingShutdown::exitPro
PUBLIC	?staticMetaObject@TimingShutdown@@2UQMetaObject@@B ; TimingShutdown::staticMetaObject
EXTRN	__imp_?activate@QMetaObject@@SAXPEAVQObject@@PEBU1@HPEAPEAX@Z:PROC
EXTRN	__imp_?dynamicMetaObject@QObjectData@@QEBAPEAUQMetaObject@@XZ:PROC
EXTRN	__imp_?qt_metacast@QWidget@@UEAAPEAXPEBD@Z:PROC
EXTRN	__imp_?qt_metacall@QWidget@@UEAAHW4Call@QMetaObject@@HPEAPEAX@Z:PROC
EXTRN	?timeEvent@TimingShutdown@@AEAAXXZ:PROC		; TimingShutdown::timeEvent
EXTRN	__imp_?staticMetaObject@QWidget@@2UQMetaObject@@B:BYTE
;	COMDAT pdata
pdata	SEGMENT
$pdata$?qt_metacall@TimingShutdown@@UEAAHW4Call@QMetaObject@@HPEAPEAX@Z DD imagerel $LN10
	DD	imagerel $LN10+112
	DD	imagerel $unwind$?qt_metacall@TimingShutdown@@UEAAHW4Call@QMetaObject@@HPEAPEAX@Z
pdata	ENDS
CRT$XCU	SEGMENT
??staticMetaObject$initializer$@TimingShutdown@@2P6AXXZEA@@3P6AXXZEA DQ FLAT:??__E?staticMetaObject@TimingShutdown@@2UQMetaObject@@B@@YAXXZ ; ??staticMetaObject$initializer$@TimingShutdown@@2P6AXXZEA@@3P6AXXZEA
CRT$XCU	ENDS
_DATA	SEGMENT
?staticMetaObject@TimingShutdown@@2UQMetaObject@@B DB 8 DUP(00H) ; TimingShutdown::staticMetaObject
	DQ	FLAT:?qt_meta_stringdata_TimingShutdown@@3Uqt_meta_stringdata_TimingShutdown_t@@B
	DQ	FLAT:?qt_meta_data_TimingShutdown@@3QBIB
	DQ	FLAT:?qt_static_metacall@TimingShutdown@@CAXPEAVQObject@@W4Call@QMetaObject@@HPEAPEAX@Z
	DQ	0000000000000000H
	DQ	0000000000000000H
_DATA	ENDS
;	COMDAT xdata
xdata	SEGMENT
$unwind$?qt_metacall@TimingShutdown@@UEAAHW4Call@QMetaObject@@HPEAPEAX@Z DD 081401H
	DD	086414H
	DD	075414H
	DD	063414H
	DD	070103214H
xdata	ENDS
; Function compile flags: /Odspy
;	COMDAT ??_EQLabel@@WBA@EAAPEAXI@Z
_TEXT	SEGMENT
??_EQLabel@@WBA@EAAPEAXI@Z PROC				; [thunk]:QLabel::`vector deleting destructor', COMDAT
	sub	rcx, 16
	jmp	??_EQLabel@@UEAAPEAXI@Z
??_EQLabel@@WBA@EAAPEAXI@Z ENDP				; [thunk]:QLabel::`vector deleting destructor'
_TEXT	ENDS
; Function compile flags: /Odspy
;	COMDAT ??_EQLCDNumber@@WBA@EAAPEAXI@Z
_TEXT	SEGMENT
??_EQLCDNumber@@WBA@EAAPEAXI@Z PROC			; [thunk]:QLCDNumber::`vector deleting destructor', COMDAT
	sub	rcx, 16
	jmp	??_EQLCDNumber@@UEAAPEAXI@Z
??_EQLCDNumber@@WBA@EAAPEAXI@Z ENDP			; [thunk]:QLCDNumber::`vector deleting destructor'
_TEXT	ENDS
; Function compile flags: /Odspy
;	COMDAT ??_EQPushButton@@WBA@EAAPEAXI@Z
_TEXT	SEGMENT
??_EQPushButton@@WBA@EAAPEAXI@Z PROC			; [thunk]:QPushButton::`vector deleting destructor', COMDAT
	sub	rcx, 16
	jmp	??_EQPushButton@@UEAAPEAXI@Z
??_EQPushButton@@WBA@EAAPEAXI@Z ENDP			; [thunk]:QPushButton::`vector deleting destructor'
_TEXT	ENDS
; Function compile flags: /Odspy
;	COMDAT ??_EQSpinBox@@WBA@EAAPEAXI@Z
_TEXT	SEGMENT
??_EQSpinBox@@WBA@EAAPEAXI@Z PROC			; [thunk]:QSpinBox::`vector deleting destructor', COMDAT
	sub	rcx, 16
	jmp	??_EQSpinBox@@UEAAPEAXI@Z
??_EQSpinBox@@WBA@EAAPEAXI@Z ENDP			; [thunk]:QSpinBox::`vector deleting destructor'
_TEXT	ENDS
; Function compile flags: /Ogtpy
;	COMDAT ??__E?staticMetaObject@TimingShutdown@@2UQMetaObject@@B@@YAXXZ
text$di	SEGMENT
??__E?staticMetaObject@TimingShutdown@@2UQMetaObject@@B@@YAXXZ PROC ; `dynamic initializer for 'TimingShutdown::staticMetaObject'', COMDAT
; File g:\programming\c++_qt_vs\timingshutdown\generatedfiles\release\moc_timingshutdown.cpp
; Line 95
	mov	rax, QWORD PTR __imp_?staticMetaObject@QWidget@@2UQMetaObject@@B
	mov	QWORD PTR ?staticMetaObject@TimingShutdown@@2UQMetaObject@@B, rax
; Line 96
	ret	0
??__E?staticMetaObject@TimingShutdown@@2UQMetaObject@@B@@YAXXZ ENDP ; `dynamic initializer for 'TimingShutdown::staticMetaObject''
text$di	ENDS
; Function compile flags: /Ogtpy
;	COMDAT ?exitPro@TimingShutdown@@QEAAXXZ
_TEXT	SEGMENT
this$ = 8
?exitPro@TimingShutdown@@QEAAXXZ PROC			; TimingShutdown::exitPro, COMDAT
; File g:\programming\c++_qt_vs\timingshutdown\generatedfiles\release\moc_timingshutdown.cpp
; Line 133
	xor	r9d, r9d
	lea	rdx, OFFSET FLAT:?staticMetaObject@TimingShutdown@@2UQMetaObject@@B ; TimingShutdown::staticMetaObject
	xor	r8d, r8d
	rex_jmp	QWORD PTR __imp_?activate@QMetaObject@@SAXPEAVQObject@@PEBU1@HPEAPEAX@Z
?exitPro@TimingShutdown@@QEAAXXZ ENDP			; TimingShutdown::exitPro
_TEXT	ENDS
; Function compile flags: /Ogtpy
;	COMDAT ?qt_static_metacall@TimingShutdown@@CAXPEAVQObject@@W4Call@QMetaObject@@HPEAPEAX@Z
_TEXT	SEGMENT
_o$ = 8
_c$ = 16
_id$ = 24
_a$ = 32
?qt_static_metacall@TimingShutdown@@CAXPEAVQObject@@W4Call@QMetaObject@@HPEAPEAX@Z PROC ; TimingShutdown::qt_static_metacall, COMDAT
; File g:\programming\c++_qt_vs\timingshutdown\generatedfiles\release\moc_timingshutdown.cpp
; Line 72
	test	edx, edx
	jne	SHORT $LN4@qt_static_
; Line 75
	test	r8d, r8d
	je	SHORT $LN6@qt_static_
	cmp	r8d, 1
	jne	SHORT $LN10@qt_static_
; Line 77
	jmp	?timeEvent@TimingShutdown@@AEAAXXZ	; TimingShutdown::timeEvent
$LN6@qt_static_:
; Line 76
	xor	r9d, r9d
	lea	rdx, OFFSET FLAT:?staticMetaObject@TimingShutdown@@2UQMetaObject@@B ; TimingShutdown::staticMetaObject
	xor	r8d, r8d
	rex_jmp	QWORD PTR __imp_?activate@QMetaObject@@SAXPEAVQObject@@PEBU1@HPEAPEAX@Z
$LN4@qt_static_:
; Line 80
	cmp	edx, 10
	jne	SHORT $LN10@qt_static_
; Line 82
	mov	rax, QWORD PTR [r9+8]
; Line 85
	lea	r8, OFFSET FLAT:?exitPro@TimingShutdown@@QEAAXXZ ; TimingShutdown::exitPro
	mov	rdx, QWORD PTR [r9]
	mov	rcx, QWORD PTR [rax]
	cmp	rcx, r8
	jne	SHORT $LN10@qt_static_
	test	rcx, rcx
	je	SHORT $LN17@qt_static_
	cmp	DWORD PTR [rax+8], 0
	jne	SHORT $LN10@qt_static_
$LN17@qt_static_:
; Line 86
	mov	DWORD PTR [rdx], 0
$LN10@qt_static_:
; Line 92
	ret	0
?qt_static_metacall@TimingShutdown@@CAXPEAVQObject@@W4Call@QMetaObject@@HPEAPEAX@Z ENDP ; TimingShutdown::qt_static_metacall
_TEXT	ENDS
; Function compile flags: /Ogtpy
;	COMDAT ?qt_metacall@TimingShutdown@@UEAAHW4Call@QMetaObject@@HPEAPEAX@Z
_TEXT	SEGMENT
this$ = 48
_c$ = 56
_id$ = 64
_a$ = 72
?qt_metacall@TimingShutdown@@UEAAHW4Call@QMetaObject@@HPEAPEAX@Z PROC ; TimingShutdown::qt_metacall, COMDAT
; File g:\programming\c++_qt_vs\timingshutdown\generatedfiles\release\moc_timingshutdown.cpp
; Line 114
$LN10:
	mov	QWORD PTR [rsp+8], rbx
	mov	QWORD PTR [rsp+16], rbp
	mov	QWORD PTR [rsp+24], rsi
	push	rdi
	sub	rsp, 32					; 00000020H
	mov	rsi, r9
	mov	edi, edx
	mov	rbp, rcx
; Line 115
	call	QWORD PTR __imp_?qt_metacall@QWidget@@UEAAHW4Call@QMetaObject@@HPEAPEAX@Z
	mov	ebx, eax
; Line 116
	test	eax, eax
	js	SHORT $LN1@qt_metacal
; Line 118
	test	edi, edi
	jne	SHORT $LN3@qt_metacal
; Line 119
	cmp	eax, 2
	jge	SHORT $LN7@qt_metacal
; Line 120
	mov	r9, rsi
	mov	r8d, eax
	xor	edx, edx
	mov	rcx, rbp
	call	?qt_static_metacall@TimingShutdown@@CAXPEAVQObject@@W4Call@QMetaObject@@HPEAPEAX@Z ; TimingShutdown::qt_static_metacall
; Line 121
	jmp	SHORT $LN7@qt_metacal
$LN3@qt_metacal:
; Line 122
	cmp	edi, 12
	jne	SHORT $LN6@qt_metacal
; Line 123
	cmp	eax, 2
	jge	SHORT $LN7@qt_metacal
; Line 124
	mov	rax, QWORD PTR [rsi]
	mov	DWORD PTR [rax], -1
$LN7@qt_metacal:
; Line 125
	sub	ebx, 2
$LN6@qt_metacal:
; Line 127
	mov	eax, ebx
$LN1@qt_metacal:
; Line 128
	mov	rbx, QWORD PTR [rsp+48]
	mov	rbp, QWORD PTR [rsp+56]
	mov	rsi, QWORD PTR [rsp+64]
	add	rsp, 32					; 00000020H
	pop	rdi
	ret	0
?qt_metacall@TimingShutdown@@UEAAHW4Call@QMetaObject@@HPEAPEAX@Z ENDP ; TimingShutdown::qt_metacall
_TEXT	ENDS
; Function compile flags: /Ogtpy
;	COMDAT ?qt_metacast@TimingShutdown@@UEAAPEAXPEBD@Z
_TEXT	SEGMENT
this$ = 8
_clname$ = 16
?qt_metacast@TimingShutdown@@UEAAPEAXPEBD@Z PROC	; TimingShutdown::qt_metacast, COMDAT
; File g:\programming\c++_qt_vs\timingshutdown\generatedfiles\release\moc_timingshutdown.cpp
; Line 106
	mov	r9, rdx
	mov	r10, rcx
; Line 107
	test	rdx, rdx
	jne	SHORT $LN2@qt_metacas
	xor	eax, eax
; Line 111
	ret	0
$LN2@qt_metacas:
; Line 108
	lea	r8, OFFSET FLAT:?qt_meta_stringdata_TimingShutdown@@3Uqt_meta_stringdata_TimingShutdown_t@@B+96
	mov	rax, rdx
	sub	r8, rdx
	npad	5
$LL5@qt_metacas:
	movzx	edx, BYTE PTR [rax]
	movzx	ecx, BYTE PTR [rax+r8]
	sub	edx, ecx
	jne	SHORT $LN6@qt_metacas
	inc	rax
	test	ecx, ecx
	jne	SHORT $LL5@qt_metacas
$LN6@qt_metacas:
	test	edx, edx
	jne	SHORT $LN3@qt_metacas
; Line 109
	mov	rax, r10
; Line 111
	ret	0
$LN3@qt_metacas:
; Line 110
	mov	rdx, r9
	mov	rcx, r10
	rex_jmp	QWORD PTR __imp_?qt_metacast@QWidget@@UEAAPEAXPEBD@Z
?qt_metacast@TimingShutdown@@UEAAPEAXPEBD@Z ENDP	; TimingShutdown::qt_metacast
_TEXT	ENDS
; Function compile flags: /Ogtpy
;	COMDAT ?metaObject@TimingShutdown@@UEBAPEBUQMetaObject@@XZ
_TEXT	SEGMENT
this$ = 8
?metaObject@TimingShutdown@@UEBAPEBUQMetaObject@@XZ PROC ; TimingShutdown::metaObject, COMDAT
; File g:\programming\c++_qt_vs\timingshutdown\generatedfiles\release\moc_timingshutdown.cpp
; Line 102
	mov	rcx, QWORD PTR [rcx+8]
	cmp	QWORD PTR [rcx+40], 0
	je	SHORT $LN3@metaObject
	rex_jmp	QWORD PTR __imp_?dynamicMetaObject@QObjectData@@QEBAPEAUQMetaObject@@XZ
$LN3@metaObject:
	lea	rax, OFFSET FLAT:?staticMetaObject@TimingShutdown@@2UQMetaObject@@B ; TimingShutdown::staticMetaObject
; Line 103
	ret	0
?metaObject@TimingShutdown@@UEBAPEBUQMetaObject@@XZ ENDP ; TimingShutdown::metaObject
_TEXT	ENDS
; Function compile flags: /Ogtpy
;	COMDAT ??C?$QScopedPointer@VQObjectData@@U?$QScopedPointerDeleter@VQObjectData@@@@@@QEBAPEAVQObjectData@@XZ
_TEXT	SEGMENT
this$ = 8
??C?$QScopedPointer@VQObjectData@@U?$QScopedPointerDeleter@VQObjectData@@@@@@QEBAPEAVQObjectData@@XZ PROC ; QScopedPointer<QObjectData,QScopedPointerDeleter<QObjectData> >::operator->, COMDAT
; File f:\qt\qt5.6.0\5.6\msvc2015_64\include\qtcore\qscopedpointer.h
; Line 113
	mov	rax, QWORD PTR [rcx]
; Line 114
	ret	0
??C?$QScopedPointer@VQObjectData@@U?$QScopedPointerDeleter@VQObjectData@@@@@@QEBAPEAVQObjectData@@XZ ENDP ; QScopedPointer<QObjectData,QScopedPointerDeleter<QObjectData> >::operator->
_TEXT	ENDS
END
