; Listing generated by Microsoft (R) Optimizing Compiler Version 19.00.23026.0 

include listing.inc

INCLUDELIB MSVCRTD
INCLUDELIB OLDNAMES

PUBLIC	??_SQPushButton@@6BQObject@@@			; QPushButton::`local vftable'
PUBLIC	??_SQPushButton@@6BQPaintDevice@@@		; QPushButton::`local vftable'
PUBLIC	??_R4QSpinBox@@6BQObject@@@			; QSpinBox::`RTTI Complete Object Locator'
PUBLIC	??_R0?AVQSpinBox@@@8				; QSpinBox `RTTI Type Descriptor'
PUBLIC	??_R3QSpinBox@@8				; QSpinBox::`RTTI Class Hierarchy Descriptor'
PUBLIC	??_R2QSpinBox@@8				; QSpinBox::`RTTI Base Class Array'
PUBLIC	??_R1A@?0A@EA@QSpinBox@@8			; QSpinBox::`RTTI Base Class Descriptor at (0,-1,0,64)'
PUBLIC	??_R1A@?0A@EA@QAbstractSpinBox@@8		; QAbstractSpinBox::`RTTI Base Class Descriptor at (0,-1,0,64)'
PUBLIC	??_R0?AVQAbstractSpinBox@@@8			; QAbstractSpinBox `RTTI Type Descriptor'
PUBLIC	??_R3QAbstractSpinBox@@8			; QAbstractSpinBox::`RTTI Class Hierarchy Descriptor'
PUBLIC	??_R2QAbstractSpinBox@@8			; QAbstractSpinBox::`RTTI Base Class Array'
PUBLIC	??_R1A@?0A@EA@QWidget@@8			; QWidget::`RTTI Base Class Descriptor at (0,-1,0,64)'
PUBLIC	??_R0?AVQWidget@@@8				; QWidget `RTTI Type Descriptor'
PUBLIC	??_R3QWidget@@8					; QWidget::`RTTI Class Hierarchy Descriptor'
PUBLIC	??_R2QWidget@@8					; QWidget::`RTTI Base Class Array'
PUBLIC	??_R1BA@?0A@EA@QPaintDevice@@8			; QPaintDevice::`RTTI Base Class Descriptor at (16,-1,0,64)'
PUBLIC	??_R0?AVQPaintDevice@@@8			; QPaintDevice `RTTI Type Descriptor'
PUBLIC	??_R3QPaintDevice@@8				; QPaintDevice::`RTTI Class Hierarchy Descriptor'
PUBLIC	??_R2QPaintDevice@@8				; QPaintDevice::`RTTI Base Class Array'
PUBLIC	??_R1A@?0A@EA@QPaintDevice@@8			; QPaintDevice::`RTTI Base Class Descriptor at (0,-1,0,64)'
PUBLIC	??_EQSpinBox@@WBA@EAAPEAXI@Z			; [thunk]:QSpinBox::`vector deleting destructor'
PUBLIC	??_R4QSpinBox@@6BQPaintDevice@@@		; QSpinBox::`RTTI Complete Object Locator'
PUBLIC	??_R4QPushButton@@6BQObject@@@			; QPushButton::`RTTI Complete Object Locator'
PUBLIC	??_R0?AVQPushButton@@@8				; QPushButton `RTTI Type Descriptor'
PUBLIC	??_R3QPushButton@@8				; QPushButton::`RTTI Class Hierarchy Descriptor'
PUBLIC	??_R2QPushButton@@8				; QPushButton::`RTTI Base Class Array'
PUBLIC	??_R1A@?0A@EA@QPushButton@@8			; QPushButton::`RTTI Base Class Descriptor at (0,-1,0,64)'
PUBLIC	??_R1A@?0A@EA@QAbstractButton@@8		; QAbstractButton::`RTTI Base Class Descriptor at (0,-1,0,64)'
PUBLIC	??_R0?AVQAbstractButton@@@8			; QAbstractButton `RTTI Type Descriptor'
PUBLIC	??_R3QAbstractButton@@8				; QAbstractButton::`RTTI Class Hierarchy Descriptor'
PUBLIC	??_R2QAbstractButton@@8				; QAbstractButton::`RTTI Base Class Array'
PUBLIC	??_EQPushButton@@WBA@EAAPEAXI@Z			; [thunk]:QPushButton::`vector deleting destructor'
PUBLIC	??_R4QPushButton@@6BQPaintDevice@@@		; QPushButton::`RTTI Complete Object Locator'
PUBLIC	??_R4QLCDNumber@@6BQObject@@@			; QLCDNumber::`RTTI Complete Object Locator'
PUBLIC	??_R0?AVQLCDNumber@@@8				; QLCDNumber `RTTI Type Descriptor'
PUBLIC	??_R3QLCDNumber@@8				; QLCDNumber::`RTTI Class Hierarchy Descriptor'
PUBLIC	??_R2QLCDNumber@@8				; QLCDNumber::`RTTI Base Class Array'
PUBLIC	??_R1A@?0A@EA@QLCDNumber@@8			; QLCDNumber::`RTTI Base Class Descriptor at (0,-1,0,64)'
PUBLIC	??_R1A@?0A@EA@QFrame@@8				; QFrame::`RTTI Base Class Descriptor at (0,-1,0,64)'
PUBLIC	??_R0?AVQFrame@@@8				; QFrame `RTTI Type Descriptor'
PUBLIC	??_R3QFrame@@8					; QFrame::`RTTI Class Hierarchy Descriptor'
PUBLIC	??_R2QFrame@@8					; QFrame::`RTTI Base Class Array'
PUBLIC	??_EQLCDNumber@@WBA@EAAPEAXI@Z			; [thunk]:QLCDNumber::`vector deleting destructor'
PUBLIC	??_R4QLCDNumber@@6BQPaintDevice@@@		; QLCDNumber::`RTTI Complete Object Locator'
PUBLIC	??_R4QLabel@@6BQObject@@@			; QLabel::`RTTI Complete Object Locator'
PUBLIC	??_R0?AVQLabel@@@8				; QLabel `RTTI Type Descriptor'
PUBLIC	??_R3QLabel@@8					; QLabel::`RTTI Class Hierarchy Descriptor'
PUBLIC	??_R2QLabel@@8					; QLabel::`RTTI Base Class Array'
PUBLIC	??_R1A@?0A@EA@QLabel@@8				; QLabel::`RTTI Base Class Descriptor at (0,-1,0,64)'
PUBLIC	??_EQLabel@@WBA@EAAPEAXI@Z			; [thunk]:QLabel::`vector deleting destructor'
PUBLIC	??_R4QLabel@@6BQPaintDevice@@@			; QLabel::`RTTI Complete Object Locator'
PUBLIC	??_SQLCDNumber@@6BQObject@@@			; QLCDNumber::`local vftable'
PUBLIC	??_SQLCDNumber@@6BQPaintDevice@@@		; QLCDNumber::`local vftable'
PUBLIC	??_SQTimer@@6B@					; QTimer::`local vftable'
PUBLIC	??_SQLabel@@6BQObject@@@			; QLabel::`local vftable'
PUBLIC	??_SQLabel@@6BQPaintDevice@@@			; QLabel::`local vftable'
PUBLIC	??_SQSpinBox@@6BQObject@@@			; QSpinBox::`local vftable'
PUBLIC	??_SQSpinBox@@6BQPaintDevice@@@			; QSpinBox::`local vftable'
PUBLIC	??_R4QTimer@@6B@				; QTimer::`RTTI Complete Object Locator'
PUBLIC	??_R0?AVQTimer@@@8				; QTimer `RTTI Type Descriptor'
PUBLIC	??_R3QTimer@@8					; QTimer::`RTTI Class Hierarchy Descriptor'
PUBLIC	??_R2QTimer@@8					; QTimer::`RTTI Base Class Array'
PUBLIC	??_R1A@?0A@EA@QTimer@@8				; QTimer::`RTTI Base Class Descriptor at (0,-1,0,64)'
PUBLIC	??_R1A@?0A@EA@QObject@@8			; QObject::`RTTI Base Class Descriptor at (0,-1,0,64)'
PUBLIC	??_R0?AVQObject@@@8				; QObject `RTTI Type Descriptor'
PUBLIC	??_R3QObject@@8					; QObject::`RTTI Class Hierarchy Descriptor'
PUBLIC	??_R2QObject@@8					; QObject::`RTTI Base Class Array'
EXTRN	?metaObject@QPushButton@@UEBAPEBUQMetaObject@@XZ:PROC ; QPushButton::metaObject
EXTRN	?qt_metacast@QPushButton@@UEAAPEAXPEBD@Z:PROC	; QPushButton::qt_metacast
EXTRN	?qt_metacall@QPushButton@@UEAAHW4Call@QMetaObject@@HPEAPEAX@Z:PROC ; QPushButton::qt_metacall
EXTRN	?sizeHint@QPushButton@@UEBA?AVQSize@@XZ:PROC	; QPushButton::sizeHint
EXTRN	?minimumSizeHint@QPushButton@@UEBA?AVQSize@@XZ:PROC ; QPushButton::minimumSizeHint
EXTRN	?event@QPushButton@@MEAA_NPEAVQEvent@@@Z:PROC	; QPushButton::event
EXTRN	?paintEvent@QPushButton@@MEAAXPEAVQPaintEvent@@@Z:PROC ; QPushButton::paintEvent
EXTRN	?keyPressEvent@QPushButton@@MEAAXPEAVQKeyEvent@@@Z:PROC ; QPushButton::keyPressEvent
EXTRN	?focusInEvent@QPushButton@@MEAAXPEAVQFocusEvent@@@Z:PROC ; QPushButton::focusInEvent
EXTRN	?focusOutEvent@QPushButton@@MEAAXPEAVQFocusEvent@@@Z:PROC ; QPushButton::focusOutEvent
EXTRN	??_GQPushButton@@UEAAPEAXI@Z:PROC		; QPushButton::`scalar deleting destructor'
EXTRN	??_EQPushButton@@UEAAPEAXI@Z:PROC		; QPushButton::`vector deleting destructor'
EXTRN	?event@QObject@@UEAA_NPEAVQEvent@@@Z:PROC	; QObject::event
EXTRN	?eventFilter@QObject@@UEAA_NPEAV1@PEAVQEvent@@@Z:PROC ; QObject::eventFilter
EXTRN	?timerEvent@QObject@@MEAAXPEAVQTimerEvent@@@Z:PROC ; QObject::timerEvent
EXTRN	?childEvent@QObject@@MEAAXPEAVQChildEvent@@@Z:PROC ; QObject::childEvent
EXTRN	?customEvent@QObject@@MEAAXPEAVQEvent@@@Z:PROC	; QObject::customEvent
EXTRN	?connectNotify@QObject@@MEAAXAEBVQMetaMethod@@@Z:PROC ; QObject::connectNotify
EXTRN	?disconnectNotify@QObject@@MEAAXAEBVQMetaMethod@@@Z:PROC ; QObject::disconnectNotify
EXTRN	?sizeHint@QAbstractSpinBox@@UEBA?AVQSize@@XZ:PROC ; QAbstractSpinBox::sizeHint
EXTRN	?minimumSizeHint@QAbstractSpinBox@@UEBA?AVQSize@@XZ:PROC ; QAbstractSpinBox::minimumSizeHint
EXTRN	?inputMethodQuery@QAbstractSpinBox@@UEBA?AVQVariant@@W4InputMethodQuery@Qt@@@Z:PROC ; QAbstractSpinBox::inputMethodQuery
EXTRN	?stepBy@QAbstractSpinBox@@UEAAXH@Z:PROC		; QAbstractSpinBox::stepBy
EXTRN	?clear@QAbstractSpinBox@@UEAAXXZ:PROC		; QAbstractSpinBox::clear
EXTRN	?resizeEvent@QAbstractSpinBox@@MEAAXPEAVQResizeEvent@@@Z:PROC ; QAbstractSpinBox::resizeEvent
EXTRN	?keyPressEvent@QAbstractSpinBox@@MEAAXPEAVQKeyEvent@@@Z:PROC ; QAbstractSpinBox::keyPressEvent
EXTRN	?keyReleaseEvent@QAbstractSpinBox@@MEAAXPEAVQKeyEvent@@@Z:PROC ; QAbstractSpinBox::keyReleaseEvent
EXTRN	?wheelEvent@QAbstractSpinBox@@MEAAXPEAVQWheelEvent@@@Z:PROC ; QAbstractSpinBox::wheelEvent
EXTRN	?focusInEvent@QAbstractSpinBox@@MEAAXPEAVQFocusEvent@@@Z:PROC ; QAbstractSpinBox::focusInEvent
EXTRN	?focusOutEvent@QAbstractSpinBox@@MEAAXPEAVQFocusEvent@@@Z:PROC ; QAbstractSpinBox::focusOutEvent
EXTRN	?contextMenuEvent@QAbstractSpinBox@@MEAAXPEAVQContextMenuEvent@@@Z:PROC ; QAbstractSpinBox::contextMenuEvent
EXTRN	?changeEvent@QAbstractSpinBox@@MEAAXPEAVQEvent@@@Z:PROC ; QAbstractSpinBox::changeEvent
EXTRN	?closeEvent@QAbstractSpinBox@@MEAAXPEAVQCloseEvent@@@Z:PROC ; QAbstractSpinBox::closeEvent
EXTRN	?hideEvent@QAbstractSpinBox@@MEAAXPEAVQHideEvent@@@Z:PROC ; QAbstractSpinBox::hideEvent
EXTRN	?mousePressEvent@QAbstractSpinBox@@MEAAXPEAVQMouseEvent@@@Z:PROC ; QAbstractSpinBox::mousePressEvent
EXTRN	?mouseReleaseEvent@QAbstractSpinBox@@MEAAXPEAVQMouseEvent@@@Z:PROC ; QAbstractSpinBox::mouseReleaseEvent
EXTRN	?mouseMoveEvent@QAbstractSpinBox@@MEAAXPEAVQMouseEvent@@@Z:PROC ; QAbstractSpinBox::mouseMoveEvent
EXTRN	?timerEvent@QAbstractSpinBox@@MEAAXPEAVQTimerEvent@@@Z:PROC ; QAbstractSpinBox::timerEvent
EXTRN	?paintEvent@QAbstractSpinBox@@MEAAXPEAVQPaintEvent@@@Z:PROC ; QAbstractSpinBox::paintEvent
EXTRN	?showEvent@QAbstractSpinBox@@MEAAXPEAVQShowEvent@@@Z:PROC ; QAbstractSpinBox::showEvent
EXTRN	?stepEnabled@QAbstractSpinBox@@MEBA?AV?$QFlags@W4StepEnabledFlag@QAbstractSpinBox@@@@XZ:PROC ; QAbstractSpinBox::stepEnabled
EXTRN	??_GQLCDNumber@@UEAAPEAXI@Z:PROC		; QLCDNumber::`scalar deleting destructor'
EXTRN	??_EQLCDNumber@@UEAAPEAXI@Z:PROC		; QLCDNumber::`vector deleting destructor'
EXTRN	?hitButton@QAbstractButton@@MEBA_NAEBVQPoint@@@Z:PROC ; QAbstractButton::hitButton
EXTRN	?checkStateSet@QAbstractButton@@MEAAXXZ:PROC	; QAbstractButton::checkStateSet
EXTRN	?nextCheckState@QAbstractButton@@MEAAXXZ:PROC	; QAbstractButton::nextCheckState
EXTRN	?keyReleaseEvent@QAbstractButton@@MEAAXPEAVQKeyEvent@@@Z:PROC ; QAbstractButton::keyReleaseEvent
EXTRN	?mousePressEvent@QAbstractButton@@MEAAXPEAVQMouseEvent@@@Z:PROC ; QAbstractButton::mousePressEvent
EXTRN	?mouseReleaseEvent@QAbstractButton@@MEAAXPEAVQMouseEvent@@@Z:PROC ; QAbstractButton::mouseReleaseEvent
EXTRN	?mouseMoveEvent@QAbstractButton@@MEAAXPEAVQMouseEvent@@@Z:PROC ; QAbstractButton::mouseMoveEvent
EXTRN	?changeEvent@QAbstractButton@@MEAAXPEAVQEvent@@@Z:PROC ; QAbstractButton::changeEvent
EXTRN	?timerEvent@QAbstractButton@@MEAAXPEAVQTimerEvent@@@Z:PROC ; QAbstractButton::timerEvent
EXTRN	?metaObject@QLCDNumber@@UEBAPEBUQMetaObject@@XZ:PROC ; QLCDNumber::metaObject
EXTRN	?qt_metacast@QLCDNumber@@UEAAPEAXPEBD@Z:PROC	; QLCDNumber::qt_metacast
EXTRN	?qt_metacall@QLCDNumber@@UEAAHW4Call@QMetaObject@@HPEAPEAX@Z:PROC ; QLCDNumber::qt_metacall
EXTRN	?sizeHint@QLCDNumber@@UEBA?AVQSize@@XZ:PROC	; QLCDNumber::sizeHint
EXTRN	?event@QLCDNumber@@MEAA_NPEAVQEvent@@@Z:PROC	; QLCDNumber::event
EXTRN	?paintEvent@QLCDNumber@@MEAAXPEAVQPaintEvent@@@Z:PROC ; QLCDNumber::paintEvent
EXTRN	??_GQTimer@@UEAAPEAXI@Z:PROC			; QTimer::`scalar deleting destructor'
EXTRN	??_EQTimer@@UEAAPEAXI@Z:PROC			; QTimer::`vector deleting destructor'
EXTRN	?metaObject@QSpinBox@@UEBAPEBUQMetaObject@@XZ:PROC ; QSpinBox::metaObject
EXTRN	?qt_metacast@QSpinBox@@UEAAPEAXPEBD@Z:PROC	; QSpinBox::qt_metacast
EXTRN	?qt_metacall@QSpinBox@@UEAAHW4Call@QMetaObject@@HPEAPEAX@Z:PROC ; QSpinBox::qt_metacall
EXTRN	?event@QSpinBox@@MEAA_NPEAVQEvent@@@Z:PROC	; QSpinBox::event
EXTRN	?validate@QSpinBox@@MEBA?AW4State@QValidator@@AEAVQString@@AEAH@Z:PROC ; QSpinBox::validate
EXTRN	?valueFromText@QSpinBox@@MEBAHAEBVQString@@@Z:PROC ; QSpinBox::valueFromText
EXTRN	?textFromValue@QSpinBox@@MEBA?AVQString@@H@Z:PROC ; QSpinBox::textFromValue
EXTRN	?fixup@QSpinBox@@MEBAXAEAVQString@@@Z:PROC	; QSpinBox::fixup
EXTRN	??_7type_info@@6B@:BYTE				; type_info::`vftable'
EXTRN	??_GQLabel@@UEAAPEAXI@Z:PROC			; QLabel::`scalar deleting destructor'
EXTRN	??_EQLabel@@UEAAPEAXI@Z:PROC			; QLabel::`vector deleting destructor'
EXTRN	??_GQSpinBox@@UEAAPEAXI@Z:PROC			; QSpinBox::`scalar deleting destructor'
EXTRN	??_EQSpinBox@@UEAAPEAXI@Z:PROC			; QSpinBox::`vector deleting destructor'
EXTRN	?metaObject@QLabel@@UEBAPEBUQMetaObject@@XZ:PROC ; QLabel::metaObject
EXTRN	?qt_metacast@QLabel@@UEAAPEAXPEBD@Z:PROC	; QLabel::qt_metacast
EXTRN	?qt_metacall@QLabel@@UEAAHW4Call@QMetaObject@@HPEAPEAX@Z:PROC ; QLabel::qt_metacall
EXTRN	?sizeHint@QLabel@@UEBA?AVQSize@@XZ:PROC		; QLabel::sizeHint
EXTRN	?minimumSizeHint@QLabel@@UEBA?AVQSize@@XZ:PROC	; QLabel::minimumSizeHint
EXTRN	?heightForWidth@QLabel@@UEBAHH@Z:PROC		; QLabel::heightForWidth
EXTRN	?event@QLabel@@MEAA_NPEAVQEvent@@@Z:PROC	; QLabel::event
EXTRN	?keyPressEvent@QLabel@@MEAAXPEAVQKeyEvent@@@Z:PROC ; QLabel::keyPressEvent
EXTRN	?paintEvent@QLabel@@MEAAXPEAVQPaintEvent@@@Z:PROC ; QLabel::paintEvent
EXTRN	?changeEvent@QLabel@@MEAAXPEAVQEvent@@@Z:PROC	; QLabel::changeEvent
EXTRN	?mousePressEvent@QLabel@@MEAAXPEAVQMouseEvent@@@Z:PROC ; QLabel::mousePressEvent
EXTRN	?mouseMoveEvent@QLabel@@MEAAXPEAVQMouseEvent@@@Z:PROC ; QLabel::mouseMoveEvent
EXTRN	?mouseReleaseEvent@QLabel@@MEAAXPEAVQMouseEvent@@@Z:PROC ; QLabel::mouseReleaseEvent
EXTRN	?contextMenuEvent@QLabel@@MEAAXPEAVQContextMenuEvent@@@Z:PROC ; QLabel::contextMenuEvent
EXTRN	?focusInEvent@QLabel@@MEAAXPEAVQFocusEvent@@@Z:PROC ; QLabel::focusInEvent
EXTRN	?focusOutEvent@QLabel@@MEAAXPEAVQFocusEvent@@@Z:PROC ; QLabel::focusOutEvent
EXTRN	?focusNextPrevChild@QLabel@@MEAA_N_N@Z:PROC	; QLabel::focusNextPrevChild
EXTRN	?devType@QWidget@@UEBAHXZ:PROC			; QWidget::devType
EXTRN	?setVisible@QWidget@@UEAAX_N@Z:PROC		; QWidget::setVisible
EXTRN	?minimumSizeHint@QWidget@@UEBA?AVQSize@@XZ:PROC	; QWidget::minimumSizeHint
EXTRN	?heightForWidth@QWidget@@UEBAHH@Z:PROC		; QWidget::heightForWidth
EXTRN	?hasHeightForWidth@QWidget@@UEBA_NXZ:PROC	; QWidget::hasHeightForWidth
EXTRN	?paintEngine@QWidget@@UEBAPEAVQPaintEngine@@XZ:PROC ; QWidget::paintEngine
EXTRN	?mousePressEvent@QWidget@@MEAAXPEAVQMouseEvent@@@Z:PROC ; QWidget::mousePressEvent
EXTRN	?mouseReleaseEvent@QWidget@@MEAAXPEAVQMouseEvent@@@Z:PROC ; QWidget::mouseReleaseEvent
EXTRN	?mouseDoubleClickEvent@QWidget@@MEAAXPEAVQMouseEvent@@@Z:PROC ; QWidget::mouseDoubleClickEvent
EXTRN	?mouseMoveEvent@QWidget@@MEAAXPEAVQMouseEvent@@@Z:PROC ; QWidget::mouseMoveEvent
EXTRN	?wheelEvent@QWidget@@MEAAXPEAVQWheelEvent@@@Z:PROC ; QWidget::wheelEvent
EXTRN	?keyPressEvent@QWidget@@MEAAXPEAVQKeyEvent@@@Z:PROC ; QWidget::keyPressEvent
EXTRN	?changeEvent@QFrame@@MEAAXPEAVQEvent@@@Z:PROC	; QFrame::changeEvent
EXTRN	?keyReleaseEvent@QWidget@@MEAAXPEAVQKeyEvent@@@Z:PROC ; QWidget::keyReleaseEvent
EXTRN	?focusInEvent@QWidget@@MEAAXPEAVQFocusEvent@@@Z:PROC ; QWidget::focusInEvent
EXTRN	?focusOutEvent@QWidget@@MEAAXPEAVQFocusEvent@@@Z:PROC ; QWidget::focusOutEvent
EXTRN	?enterEvent@QWidget@@MEAAXPEAVQEvent@@@Z:PROC	; QWidget::enterEvent
EXTRN	?metaObject@QTimer@@UEBAPEBUQMetaObject@@XZ:PROC ; QTimer::metaObject
EXTRN	?leaveEvent@QWidget@@MEAAXPEAVQEvent@@@Z:PROC	; QWidget::leaveEvent
EXTRN	?qt_metacast@QTimer@@UEAAPEAXPEBD@Z:PROC	; QTimer::qt_metacast
EXTRN	?moveEvent@QWidget@@MEAAXPEAVQMoveEvent@@@Z:PROC ; QWidget::moveEvent
EXTRN	?qt_metacall@QTimer@@UEAAHW4Call@QMetaObject@@HPEAPEAX@Z:PROC ; QTimer::qt_metacall
EXTRN	?resizeEvent@QWidget@@MEAAXPEAVQResizeEvent@@@Z:PROC ; QWidget::resizeEvent
EXTRN	?timerEvent@QTimer@@MEAAXPEAVQTimerEvent@@@Z:PROC ; QTimer::timerEvent
EXTRN	?closeEvent@QWidget@@MEAAXPEAVQCloseEvent@@@Z:PROC ; QWidget::closeEvent
EXTRN	?contextMenuEvent@QWidget@@MEAAXPEAVQContextMenuEvent@@@Z:PROC ; QWidget::contextMenuEvent
EXTRN	?tabletEvent@QWidget@@MEAAXPEAVQTabletEvent@@@Z:PROC ; QWidget::tabletEvent
EXTRN	?actionEvent@QWidget@@MEAAXPEAVQActionEvent@@@Z:PROC ; QWidget::actionEvent
EXTRN	?dragEnterEvent@QWidget@@MEAAXPEAVQDragEnterEvent@@@Z:PROC ; QWidget::dragEnterEvent
EXTRN	?dragMoveEvent@QWidget@@MEAAXPEAVQDragMoveEvent@@@Z:PROC ; QWidget::dragMoveEvent
EXTRN	?dragLeaveEvent@QWidget@@MEAAXPEAVQDragLeaveEvent@@@Z:PROC ; QWidget::dragLeaveEvent
EXTRN	?dropEvent@QWidget@@MEAAXPEAVQDropEvent@@@Z:PROC ; QWidget::dropEvent
EXTRN	?showEvent@QWidget@@MEAAXPEAVQShowEvent@@@Z:PROC ; QWidget::showEvent
EXTRN	?hideEvent@QWidget@@MEAAXPEAVQHideEvent@@@Z:PROC ; QWidget::hideEvent
EXTRN	?nativeEvent@QWidget@@MEAA_NAEBVQByteArray@@PEAXPEAJ@Z:PROC ; QWidget::nativeEvent
EXTRN	?metric@QWidget@@MEBAHW4PaintDeviceMetric@QPaintDevice@@@Z:PROC ; QWidget::metric
EXTRN	?initPainter@QWidget@@MEBAXPEAVQPainter@@@Z:PROC ; QWidget::initPainter
EXTRN	?redirected@QWidget@@MEBAPEAVQPaintDevice@@PEAVQPoint@@@Z:PROC ; QWidget::redirected
EXTRN	?sharedPainter@QWidget@@MEBAPEAVQPainter@@XZ:PROC ; QWidget::sharedPainter
EXTRN	?inputMethodEvent@QWidget@@MEAAXPEAVQInputMethodEvent@@@Z:PROC ; QWidget::inputMethodEvent
EXTRN	?inputMethodQuery@QWidget@@UEBA?AVQVariant@@W4InputMethodQuery@Qt@@@Z:PROC ; QWidget::inputMethodQuery
EXTRN	?focusNextPrevChild@QWidget@@MEAA_N_N@Z:PROC	; QWidget::focusNextPrevChild
;	COMDAT ??_R2QObject@@8
rdata$r	SEGMENT
??_R2QObject@@8 DD imagerel ??_R1A@?0A@EA@QObject@@8	; QObject::`RTTI Base Class Array'
	ORG $+3
rdata$r	ENDS
;	COMDAT ??_R3QObject@@8
rdata$r	SEGMENT
??_R3QObject@@8 DD 00H					; QObject::`RTTI Class Hierarchy Descriptor'
	DD	00H
	DD	01H
	DD	imagerel ??_R2QObject@@8
rdata$r	ENDS
;	COMDAT ??_R0?AVQObject@@@8
data$r	SEGMENT
??_R0?AVQObject@@@8 DQ FLAT:??_7type_info@@6B@		; QObject `RTTI Type Descriptor'
	DQ	0000000000000000H
	DB	'.?AVQObject@@', 00H
data$r	ENDS
;	COMDAT ??_R1A@?0A@EA@QObject@@8
rdata$r	SEGMENT
??_R1A@?0A@EA@QObject@@8 DD imagerel ??_R0?AVQObject@@@8 ; QObject::`RTTI Base Class Descriptor at (0,-1,0,64)'
	DD	00H
	DD	00H
	DD	0ffffffffH
	DD	00H
	DD	040H
	DD	imagerel ??_R3QObject@@8
rdata$r	ENDS
;	COMDAT ??_R1A@?0A@EA@QTimer@@8
rdata$r	SEGMENT
??_R1A@?0A@EA@QTimer@@8 DD imagerel ??_R0?AVQTimer@@@8	; QTimer::`RTTI Base Class Descriptor at (0,-1,0,64)'
	DD	01H
	DD	00H
	DD	0ffffffffH
	DD	00H
	DD	040H
	DD	imagerel ??_R3QTimer@@8
rdata$r	ENDS
;	COMDAT ??_R2QTimer@@8
rdata$r	SEGMENT
??_R2QTimer@@8 DD imagerel ??_R1A@?0A@EA@QTimer@@8	; QTimer::`RTTI Base Class Array'
	DD	imagerel ??_R1A@?0A@EA@QObject@@8
	ORG $+3
rdata$r	ENDS
;	COMDAT ??_R3QTimer@@8
rdata$r	SEGMENT
??_R3QTimer@@8 DD 00H					; QTimer::`RTTI Class Hierarchy Descriptor'
	DD	00H
	DD	02H
	DD	imagerel ??_R2QTimer@@8
rdata$r	ENDS
;	COMDAT ??_R0?AVQTimer@@@8
data$r	SEGMENT
??_R0?AVQTimer@@@8 DQ FLAT:??_7type_info@@6B@		; QTimer `RTTI Type Descriptor'
	DQ	0000000000000000H
	DB	'.?AVQTimer@@', 00H
data$r	ENDS
;	COMDAT ??_R4QTimer@@6B@
rdata$r	SEGMENT
??_R4QTimer@@6B@ DD 01H					; QTimer::`RTTI Complete Object Locator'
	DD	00H
	DD	00H
	DD	imagerel ??_R0?AVQTimer@@@8
	DD	imagerel ??_R3QTimer@@8
	DD	imagerel ??_R4QTimer@@6B@
rdata$r	ENDS
;	COMDAT ??_SQSpinBox@@6BQPaintDevice@@@
CONST	SEGMENT
??_SQSpinBox@@6BQPaintDevice@@@ DQ FLAT:??_R4QSpinBox@@6BQPaintDevice@@@ ; QSpinBox::`local vftable'
	DQ	FLAT:??_EQSpinBox@@WBA@EAAPEAXI@Z
	DQ	FLAT:?devType@QWidget@@UEBAHXZ
	DQ	FLAT:?paintEngine@QWidget@@UEBAPEAVQPaintEngine@@XZ
	DQ	FLAT:?metric@QWidget@@MEBAHW4PaintDeviceMetric@QPaintDevice@@@Z
	DQ	FLAT:?initPainter@QWidget@@MEBAXPEAVQPainter@@@Z
	DQ	FLAT:?redirected@QWidget@@MEBAPEAVQPaintDevice@@PEAVQPoint@@@Z
	DQ	FLAT:?sharedPainter@QWidget@@MEBAPEAVQPainter@@XZ
CONST	ENDS
;	COMDAT ??_SQSpinBox@@6BQObject@@@
CONST	SEGMENT
??_SQSpinBox@@6BQObject@@@ DQ FLAT:??_R4QSpinBox@@6BQObject@@@ ; QSpinBox::`local vftable'
	DQ	FLAT:?metaObject@QSpinBox@@UEBAPEBUQMetaObject@@XZ
	DQ	FLAT:?qt_metacast@QSpinBox@@UEAAPEAXPEBD@Z
	DQ	FLAT:?qt_metacall@QSpinBox@@UEAAHW4Call@QMetaObject@@HPEAPEAX@Z
	DQ	FLAT:??_EQSpinBox@@UEAAPEAXI@Z
	DQ	FLAT:?event@QSpinBox@@MEAA_NPEAVQEvent@@@Z
	DQ	FLAT:?eventFilter@QObject@@UEAA_NPEAV1@PEAVQEvent@@@Z
	DQ	FLAT:?timerEvent@QAbstractSpinBox@@MEAAXPEAVQTimerEvent@@@Z
	DQ	FLAT:?childEvent@QObject@@MEAAXPEAVQChildEvent@@@Z
	DQ	FLAT:?customEvent@QObject@@MEAAXPEAVQEvent@@@Z
	DQ	FLAT:?connectNotify@QObject@@MEAAXAEBVQMetaMethod@@@Z
	DQ	FLAT:?disconnectNotify@QObject@@MEAAXAEBVQMetaMethod@@@Z
	DQ	FLAT:?setVisible@QWidget@@UEAAX_N@Z
	DQ	FLAT:?sizeHint@QAbstractSpinBox@@UEBA?AVQSize@@XZ
	DQ	FLAT:?minimumSizeHint@QAbstractSpinBox@@UEBA?AVQSize@@XZ
	DQ	FLAT:?heightForWidth@QWidget@@UEBAHH@Z
	DQ	FLAT:?hasHeightForWidth@QWidget@@UEBA_NXZ
	DQ	FLAT:?mousePressEvent@QAbstractSpinBox@@MEAAXPEAVQMouseEvent@@@Z
	DQ	FLAT:?mouseReleaseEvent@QAbstractSpinBox@@MEAAXPEAVQMouseEvent@@@Z
	DQ	FLAT:?mouseDoubleClickEvent@QWidget@@MEAAXPEAVQMouseEvent@@@Z
	DQ	FLAT:?mouseMoveEvent@QAbstractSpinBox@@MEAAXPEAVQMouseEvent@@@Z
	DQ	FLAT:?wheelEvent@QAbstractSpinBox@@MEAAXPEAVQWheelEvent@@@Z
	DQ	FLAT:?keyPressEvent@QAbstractSpinBox@@MEAAXPEAVQKeyEvent@@@Z
	DQ	FLAT:?keyReleaseEvent@QAbstractSpinBox@@MEAAXPEAVQKeyEvent@@@Z
	DQ	FLAT:?focusInEvent@QAbstractSpinBox@@MEAAXPEAVQFocusEvent@@@Z
	DQ	FLAT:?focusOutEvent@QAbstractSpinBox@@MEAAXPEAVQFocusEvent@@@Z
	DQ	FLAT:?enterEvent@QWidget@@MEAAXPEAVQEvent@@@Z
	DQ	FLAT:?leaveEvent@QWidget@@MEAAXPEAVQEvent@@@Z
	DQ	FLAT:?paintEvent@QAbstractSpinBox@@MEAAXPEAVQPaintEvent@@@Z
	DQ	FLAT:?moveEvent@QWidget@@MEAAXPEAVQMoveEvent@@@Z
	DQ	FLAT:?resizeEvent@QAbstractSpinBox@@MEAAXPEAVQResizeEvent@@@Z
	DQ	FLAT:?closeEvent@QAbstractSpinBox@@MEAAXPEAVQCloseEvent@@@Z
	DQ	FLAT:?contextMenuEvent@QAbstractSpinBox@@MEAAXPEAVQContextMenuEvent@@@Z
	DQ	FLAT:?tabletEvent@QWidget@@MEAAXPEAVQTabletEvent@@@Z
	DQ	FLAT:?actionEvent@QWidget@@MEAAXPEAVQActionEvent@@@Z
	DQ	FLAT:?dragEnterEvent@QWidget@@MEAAXPEAVQDragEnterEvent@@@Z
	DQ	FLAT:?dragMoveEvent@QWidget@@MEAAXPEAVQDragMoveEvent@@@Z
	DQ	FLAT:?dragLeaveEvent@QWidget@@MEAAXPEAVQDragLeaveEvent@@@Z
	DQ	FLAT:?dropEvent@QWidget@@MEAAXPEAVQDropEvent@@@Z
	DQ	FLAT:?showEvent@QAbstractSpinBox@@MEAAXPEAVQShowEvent@@@Z
	DQ	FLAT:?hideEvent@QAbstractSpinBox@@MEAAXPEAVQHideEvent@@@Z
	DQ	FLAT:?nativeEvent@QWidget@@MEAA_NAEBVQByteArray@@PEAXPEAJ@Z
	DQ	FLAT:?changeEvent@QAbstractSpinBox@@MEAAXPEAVQEvent@@@Z
	DQ	FLAT:?inputMethodEvent@QWidget@@MEAAXPEAVQInputMethodEvent@@@Z
	DQ	FLAT:?inputMethodQuery@QAbstractSpinBox@@UEBA?AVQVariant@@W4InputMethodQuery@Qt@@@Z
	DQ	FLAT:?focusNextPrevChild@QWidget@@MEAA_N_N@Z
	DQ	FLAT:?validate@QSpinBox@@MEBA?AW4State@QValidator@@AEAVQString@@AEAH@Z
	DQ	FLAT:?fixup@QSpinBox@@MEBAXAEAVQString@@@Z
	DQ	FLAT:?stepBy@QAbstractSpinBox@@UEAAXH@Z
	DQ	FLAT:?clear@QAbstractSpinBox@@UEAAXXZ
	DQ	FLAT:?stepEnabled@QAbstractSpinBox@@MEBA?AV?$QFlags@W4StepEnabledFlag@QAbstractSpinBox@@@@XZ
	DQ	FLAT:?valueFromText@QSpinBox@@MEBAHAEBVQString@@@Z
	DQ	FLAT:?textFromValue@QSpinBox@@MEBA?AVQString@@H@Z
CONST	ENDS
;	COMDAT ??_SQLabel@@6BQPaintDevice@@@
CONST	SEGMENT
??_SQLabel@@6BQPaintDevice@@@ DQ FLAT:??_R4QLabel@@6BQPaintDevice@@@ ; QLabel::`local vftable'
	DQ	FLAT:??_EQLabel@@WBA@EAAPEAXI@Z
	DQ	FLAT:?devType@QWidget@@UEBAHXZ
	DQ	FLAT:?paintEngine@QWidget@@UEBAPEAVQPaintEngine@@XZ
	DQ	FLAT:?metric@QWidget@@MEBAHW4PaintDeviceMetric@QPaintDevice@@@Z
	DQ	FLAT:?initPainter@QWidget@@MEBAXPEAVQPainter@@@Z
	DQ	FLAT:?redirected@QWidget@@MEBAPEAVQPaintDevice@@PEAVQPoint@@@Z
	DQ	FLAT:?sharedPainter@QWidget@@MEBAPEAVQPainter@@XZ
CONST	ENDS
;	COMDAT ??_SQLabel@@6BQObject@@@
CONST	SEGMENT
??_SQLabel@@6BQObject@@@ DQ FLAT:??_R4QLabel@@6BQObject@@@ ; QLabel::`local vftable'
	DQ	FLAT:?metaObject@QLabel@@UEBAPEBUQMetaObject@@XZ
	DQ	FLAT:?qt_metacast@QLabel@@UEAAPEAXPEBD@Z
	DQ	FLAT:?qt_metacall@QLabel@@UEAAHW4Call@QMetaObject@@HPEAPEAX@Z
	DQ	FLAT:??_EQLabel@@UEAAPEAXI@Z
	DQ	FLAT:?event@QLabel@@MEAA_NPEAVQEvent@@@Z
	DQ	FLAT:?eventFilter@QObject@@UEAA_NPEAV1@PEAVQEvent@@@Z
	DQ	FLAT:?timerEvent@QObject@@MEAAXPEAVQTimerEvent@@@Z
	DQ	FLAT:?childEvent@QObject@@MEAAXPEAVQChildEvent@@@Z
	DQ	FLAT:?customEvent@QObject@@MEAAXPEAVQEvent@@@Z
	DQ	FLAT:?connectNotify@QObject@@MEAAXAEBVQMetaMethod@@@Z
	DQ	FLAT:?disconnectNotify@QObject@@MEAAXAEBVQMetaMethod@@@Z
	DQ	FLAT:?setVisible@QWidget@@UEAAX_N@Z
	DQ	FLAT:?sizeHint@QLabel@@UEBA?AVQSize@@XZ
	DQ	FLAT:?minimumSizeHint@QLabel@@UEBA?AVQSize@@XZ
	DQ	FLAT:?heightForWidth@QLabel@@UEBAHH@Z
	DQ	FLAT:?hasHeightForWidth@QWidget@@UEBA_NXZ
	DQ	FLAT:?mousePressEvent@QLabel@@MEAAXPEAVQMouseEvent@@@Z
	DQ	FLAT:?mouseReleaseEvent@QLabel@@MEAAXPEAVQMouseEvent@@@Z
	DQ	FLAT:?mouseDoubleClickEvent@QWidget@@MEAAXPEAVQMouseEvent@@@Z
	DQ	FLAT:?mouseMoveEvent@QLabel@@MEAAXPEAVQMouseEvent@@@Z
	DQ	FLAT:?wheelEvent@QWidget@@MEAAXPEAVQWheelEvent@@@Z
	DQ	FLAT:?keyPressEvent@QLabel@@MEAAXPEAVQKeyEvent@@@Z
	DQ	FLAT:?keyReleaseEvent@QWidget@@MEAAXPEAVQKeyEvent@@@Z
	DQ	FLAT:?focusInEvent@QLabel@@MEAAXPEAVQFocusEvent@@@Z
	DQ	FLAT:?focusOutEvent@QLabel@@MEAAXPEAVQFocusEvent@@@Z
	DQ	FLAT:?enterEvent@QWidget@@MEAAXPEAVQEvent@@@Z
	DQ	FLAT:?leaveEvent@QWidget@@MEAAXPEAVQEvent@@@Z
	DQ	FLAT:?paintEvent@QLabel@@MEAAXPEAVQPaintEvent@@@Z
	DQ	FLAT:?moveEvent@QWidget@@MEAAXPEAVQMoveEvent@@@Z
	DQ	FLAT:?resizeEvent@QWidget@@MEAAXPEAVQResizeEvent@@@Z
	DQ	FLAT:?closeEvent@QWidget@@MEAAXPEAVQCloseEvent@@@Z
	DQ	FLAT:?contextMenuEvent@QLabel@@MEAAXPEAVQContextMenuEvent@@@Z
	DQ	FLAT:?tabletEvent@QWidget@@MEAAXPEAVQTabletEvent@@@Z
	DQ	FLAT:?actionEvent@QWidget@@MEAAXPEAVQActionEvent@@@Z
	DQ	FLAT:?dragEnterEvent@QWidget@@MEAAXPEAVQDragEnterEvent@@@Z
	DQ	FLAT:?dragMoveEvent@QWidget@@MEAAXPEAVQDragMoveEvent@@@Z
	DQ	FLAT:?dragLeaveEvent@QWidget@@MEAAXPEAVQDragLeaveEvent@@@Z
	DQ	FLAT:?dropEvent@QWidget@@MEAAXPEAVQDropEvent@@@Z
	DQ	FLAT:?showEvent@QWidget@@MEAAXPEAVQShowEvent@@@Z
	DQ	FLAT:?hideEvent@QWidget@@MEAAXPEAVQHideEvent@@@Z
	DQ	FLAT:?nativeEvent@QWidget@@MEAA_NAEBVQByteArray@@PEAXPEAJ@Z
	DQ	FLAT:?changeEvent@QLabel@@MEAAXPEAVQEvent@@@Z
	DQ	FLAT:?inputMethodEvent@QWidget@@MEAAXPEAVQInputMethodEvent@@@Z
	DQ	FLAT:?inputMethodQuery@QWidget@@UEBA?AVQVariant@@W4InputMethodQuery@Qt@@@Z
	DQ	FLAT:?focusNextPrevChild@QLabel@@MEAA_N_N@Z
CONST	ENDS
;	COMDAT ??_SQTimer@@6B@
CONST	SEGMENT
??_SQTimer@@6B@ DQ FLAT:??_R4QTimer@@6B@		; QTimer::`local vftable'
	DQ	FLAT:?metaObject@QTimer@@UEBAPEBUQMetaObject@@XZ
	DQ	FLAT:?qt_metacast@QTimer@@UEAAPEAXPEBD@Z
	DQ	FLAT:?qt_metacall@QTimer@@UEAAHW4Call@QMetaObject@@HPEAPEAX@Z
	DQ	FLAT:??_EQTimer@@UEAAPEAXI@Z
	DQ	FLAT:?event@QObject@@UEAA_NPEAVQEvent@@@Z
	DQ	FLAT:?eventFilter@QObject@@UEAA_NPEAV1@PEAVQEvent@@@Z
	DQ	FLAT:?timerEvent@QTimer@@MEAAXPEAVQTimerEvent@@@Z
	DQ	FLAT:?childEvent@QObject@@MEAAXPEAVQChildEvent@@@Z
	DQ	FLAT:?customEvent@QObject@@MEAAXPEAVQEvent@@@Z
	DQ	FLAT:?connectNotify@QObject@@MEAAXAEBVQMetaMethod@@@Z
	DQ	FLAT:?disconnectNotify@QObject@@MEAAXAEBVQMetaMethod@@@Z
CONST	ENDS
;	COMDAT ??_SQLCDNumber@@6BQPaintDevice@@@
CONST	SEGMENT
??_SQLCDNumber@@6BQPaintDevice@@@ DQ FLAT:??_R4QLCDNumber@@6BQPaintDevice@@@ ; QLCDNumber::`local vftable'
	DQ	FLAT:??_EQLCDNumber@@WBA@EAAPEAXI@Z
	DQ	FLAT:?devType@QWidget@@UEBAHXZ
	DQ	FLAT:?paintEngine@QWidget@@UEBAPEAVQPaintEngine@@XZ
	DQ	FLAT:?metric@QWidget@@MEBAHW4PaintDeviceMetric@QPaintDevice@@@Z
	DQ	FLAT:?initPainter@QWidget@@MEBAXPEAVQPainter@@@Z
	DQ	FLAT:?redirected@QWidget@@MEBAPEAVQPaintDevice@@PEAVQPoint@@@Z
	DQ	FLAT:?sharedPainter@QWidget@@MEBAPEAVQPainter@@XZ
CONST	ENDS
;	COMDAT ??_SQLCDNumber@@6BQObject@@@
CONST	SEGMENT
??_SQLCDNumber@@6BQObject@@@ DQ FLAT:??_R4QLCDNumber@@6BQObject@@@ ; QLCDNumber::`local vftable'
	DQ	FLAT:?metaObject@QLCDNumber@@UEBAPEBUQMetaObject@@XZ
	DQ	FLAT:?qt_metacast@QLCDNumber@@UEAAPEAXPEBD@Z
	DQ	FLAT:?qt_metacall@QLCDNumber@@UEAAHW4Call@QMetaObject@@HPEAPEAX@Z
	DQ	FLAT:??_EQLCDNumber@@UEAAPEAXI@Z
	DQ	FLAT:?event@QLCDNumber@@MEAA_NPEAVQEvent@@@Z
	DQ	FLAT:?eventFilter@QObject@@UEAA_NPEAV1@PEAVQEvent@@@Z
	DQ	FLAT:?timerEvent@QObject@@MEAAXPEAVQTimerEvent@@@Z
	DQ	FLAT:?childEvent@QObject@@MEAAXPEAVQChildEvent@@@Z
	DQ	FLAT:?customEvent@QObject@@MEAAXPEAVQEvent@@@Z
	DQ	FLAT:?connectNotify@QObject@@MEAAXAEBVQMetaMethod@@@Z
	DQ	FLAT:?disconnectNotify@QObject@@MEAAXAEBVQMetaMethod@@@Z
	DQ	FLAT:?setVisible@QWidget@@UEAAX_N@Z
	DQ	FLAT:?sizeHint@QLCDNumber@@UEBA?AVQSize@@XZ
	DQ	FLAT:?minimumSizeHint@QWidget@@UEBA?AVQSize@@XZ
	DQ	FLAT:?heightForWidth@QWidget@@UEBAHH@Z
	DQ	FLAT:?hasHeightForWidth@QWidget@@UEBA_NXZ
	DQ	FLAT:?mousePressEvent@QWidget@@MEAAXPEAVQMouseEvent@@@Z
	DQ	FLAT:?mouseReleaseEvent@QWidget@@MEAAXPEAVQMouseEvent@@@Z
	DQ	FLAT:?mouseDoubleClickEvent@QWidget@@MEAAXPEAVQMouseEvent@@@Z
	DQ	FLAT:?mouseMoveEvent@QWidget@@MEAAXPEAVQMouseEvent@@@Z
	DQ	FLAT:?wheelEvent@QWidget@@MEAAXPEAVQWheelEvent@@@Z
	DQ	FLAT:?keyPressEvent@QWidget@@MEAAXPEAVQKeyEvent@@@Z
	DQ	FLAT:?keyReleaseEvent@QWidget@@MEAAXPEAVQKeyEvent@@@Z
	DQ	FLAT:?focusInEvent@QWidget@@MEAAXPEAVQFocusEvent@@@Z
	DQ	FLAT:?focusOutEvent@QWidget@@MEAAXPEAVQFocusEvent@@@Z
	DQ	FLAT:?enterEvent@QWidget@@MEAAXPEAVQEvent@@@Z
	DQ	FLAT:?leaveEvent@QWidget@@MEAAXPEAVQEvent@@@Z
	DQ	FLAT:?paintEvent@QLCDNumber@@MEAAXPEAVQPaintEvent@@@Z
	DQ	FLAT:?moveEvent@QWidget@@MEAAXPEAVQMoveEvent@@@Z
	DQ	FLAT:?resizeEvent@QWidget@@MEAAXPEAVQResizeEvent@@@Z
	DQ	FLAT:?closeEvent@QWidget@@MEAAXPEAVQCloseEvent@@@Z
	DQ	FLAT:?contextMenuEvent@QWidget@@MEAAXPEAVQContextMenuEvent@@@Z
	DQ	FLAT:?tabletEvent@QWidget@@MEAAXPEAVQTabletEvent@@@Z
	DQ	FLAT:?actionEvent@QWidget@@MEAAXPEAVQActionEvent@@@Z
	DQ	FLAT:?dragEnterEvent@QWidget@@MEAAXPEAVQDragEnterEvent@@@Z
	DQ	FLAT:?dragMoveEvent@QWidget@@MEAAXPEAVQDragMoveEvent@@@Z
	DQ	FLAT:?dragLeaveEvent@QWidget@@MEAAXPEAVQDragLeaveEvent@@@Z
	DQ	FLAT:?dropEvent@QWidget@@MEAAXPEAVQDropEvent@@@Z
	DQ	FLAT:?showEvent@QWidget@@MEAAXPEAVQShowEvent@@@Z
	DQ	FLAT:?hideEvent@QWidget@@MEAAXPEAVQHideEvent@@@Z
	DQ	FLAT:?nativeEvent@QWidget@@MEAA_NAEBVQByteArray@@PEAXPEAJ@Z
	DQ	FLAT:?changeEvent@QFrame@@MEAAXPEAVQEvent@@@Z
	DQ	FLAT:?inputMethodEvent@QWidget@@MEAAXPEAVQInputMethodEvent@@@Z
	DQ	FLAT:?inputMethodQuery@QWidget@@UEBA?AVQVariant@@W4InputMethodQuery@Qt@@@Z
	DQ	FLAT:?focusNextPrevChild@QWidget@@MEAA_N_N@Z
CONST	ENDS
;	COMDAT ??_R4QLabel@@6BQPaintDevice@@@
rdata$r	SEGMENT
??_R4QLabel@@6BQPaintDevice@@@ DD 01H			; QLabel::`RTTI Complete Object Locator'
	DD	010H
	DD	00H
	DD	imagerel ??_R0?AVQLabel@@@8
	DD	imagerel ??_R3QLabel@@8
	DD	imagerel ??_R4QLabel@@6BQPaintDevice@@@
rdata$r	ENDS
;	COMDAT ??_R1A@?0A@EA@QLabel@@8
rdata$r	SEGMENT
??_R1A@?0A@EA@QLabel@@8 DD imagerel ??_R0?AVQLabel@@@8	; QLabel::`RTTI Base Class Descriptor at (0,-1,0,64)'
	DD	04H
	DD	00H
	DD	0ffffffffH
	DD	00H
	DD	040H
	DD	imagerel ??_R3QLabel@@8
rdata$r	ENDS
;	COMDAT ??_R2QLabel@@8
rdata$r	SEGMENT
??_R2QLabel@@8 DD imagerel ??_R1A@?0A@EA@QLabel@@8	; QLabel::`RTTI Base Class Array'
	DD	imagerel ??_R1A@?0A@EA@QFrame@@8
	DD	imagerel ??_R1A@?0A@EA@QWidget@@8
	DD	imagerel ??_R1A@?0A@EA@QObject@@8
	DD	imagerel ??_R1BA@?0A@EA@QPaintDevice@@8
	ORG $+3
rdata$r	ENDS
;	COMDAT ??_R3QLabel@@8
rdata$r	SEGMENT
??_R3QLabel@@8 DD 00H					; QLabel::`RTTI Class Hierarchy Descriptor'
	DD	01H
	DD	05H
	DD	imagerel ??_R2QLabel@@8
rdata$r	ENDS
;	COMDAT ??_R0?AVQLabel@@@8
data$r	SEGMENT
??_R0?AVQLabel@@@8 DQ FLAT:??_7type_info@@6B@		; QLabel `RTTI Type Descriptor'
	DQ	0000000000000000H
	DB	'.?AVQLabel@@', 00H
data$r	ENDS
;	COMDAT ??_R4QLabel@@6BQObject@@@
rdata$r	SEGMENT
??_R4QLabel@@6BQObject@@@ DD 01H			; QLabel::`RTTI Complete Object Locator'
	DD	00H
	DD	00H
	DD	imagerel ??_R0?AVQLabel@@@8
	DD	imagerel ??_R3QLabel@@8
	DD	imagerel ??_R4QLabel@@6BQObject@@@
rdata$r	ENDS
;	COMDAT ??_R4QLCDNumber@@6BQPaintDevice@@@
rdata$r	SEGMENT
??_R4QLCDNumber@@6BQPaintDevice@@@ DD 01H		; QLCDNumber::`RTTI Complete Object Locator'
	DD	010H
	DD	00H
	DD	imagerel ??_R0?AVQLCDNumber@@@8
	DD	imagerel ??_R3QLCDNumber@@8
	DD	imagerel ??_R4QLCDNumber@@6BQPaintDevice@@@
rdata$r	ENDS
;	COMDAT ??_R2QFrame@@8
rdata$r	SEGMENT
??_R2QFrame@@8 DD imagerel ??_R1A@?0A@EA@QFrame@@8	; QFrame::`RTTI Base Class Array'
	DD	imagerel ??_R1A@?0A@EA@QWidget@@8
	DD	imagerel ??_R1A@?0A@EA@QObject@@8
	DD	imagerel ??_R1BA@?0A@EA@QPaintDevice@@8
	ORG $+3
rdata$r	ENDS
;	COMDAT ??_R3QFrame@@8
rdata$r	SEGMENT
??_R3QFrame@@8 DD 00H					; QFrame::`RTTI Class Hierarchy Descriptor'
	DD	01H
	DD	04H
	DD	imagerel ??_R2QFrame@@8
rdata$r	ENDS
;	COMDAT ??_R0?AVQFrame@@@8
data$r	SEGMENT
??_R0?AVQFrame@@@8 DQ FLAT:??_7type_info@@6B@		; QFrame `RTTI Type Descriptor'
	DQ	0000000000000000H
	DB	'.?AVQFrame@@', 00H
data$r	ENDS
;	COMDAT ??_R1A@?0A@EA@QFrame@@8
rdata$r	SEGMENT
??_R1A@?0A@EA@QFrame@@8 DD imagerel ??_R0?AVQFrame@@@8	; QFrame::`RTTI Base Class Descriptor at (0,-1,0,64)'
	DD	03H
	DD	00H
	DD	0ffffffffH
	DD	00H
	DD	040H
	DD	imagerel ??_R3QFrame@@8
rdata$r	ENDS
;	COMDAT ??_R1A@?0A@EA@QLCDNumber@@8
rdata$r	SEGMENT
??_R1A@?0A@EA@QLCDNumber@@8 DD imagerel ??_R0?AVQLCDNumber@@@8 ; QLCDNumber::`RTTI Base Class Descriptor at (0,-1,0,64)'
	DD	04H
	DD	00H
	DD	0ffffffffH
	DD	00H
	DD	040H
	DD	imagerel ??_R3QLCDNumber@@8
rdata$r	ENDS
;	COMDAT ??_R2QLCDNumber@@8
rdata$r	SEGMENT
??_R2QLCDNumber@@8 DD imagerel ??_R1A@?0A@EA@QLCDNumber@@8 ; QLCDNumber::`RTTI Base Class Array'
	DD	imagerel ??_R1A@?0A@EA@QFrame@@8
	DD	imagerel ??_R1A@?0A@EA@QWidget@@8
	DD	imagerel ??_R1A@?0A@EA@QObject@@8
	DD	imagerel ??_R1BA@?0A@EA@QPaintDevice@@8
	ORG $+3
rdata$r	ENDS
;	COMDAT ??_R3QLCDNumber@@8
rdata$r	SEGMENT
??_R3QLCDNumber@@8 DD 00H				; QLCDNumber::`RTTI Class Hierarchy Descriptor'
	DD	01H
	DD	05H
	DD	imagerel ??_R2QLCDNumber@@8
rdata$r	ENDS
;	COMDAT ??_R0?AVQLCDNumber@@@8
data$r	SEGMENT
??_R0?AVQLCDNumber@@@8 DQ FLAT:??_7type_info@@6B@	; QLCDNumber `RTTI Type Descriptor'
	DQ	0000000000000000H
	DB	'.?AVQLCDNumber@@', 00H
data$r	ENDS
;	COMDAT ??_R4QLCDNumber@@6BQObject@@@
rdata$r	SEGMENT
??_R4QLCDNumber@@6BQObject@@@ DD 01H			; QLCDNumber::`RTTI Complete Object Locator'
	DD	00H
	DD	00H
	DD	imagerel ??_R0?AVQLCDNumber@@@8
	DD	imagerel ??_R3QLCDNumber@@8
	DD	imagerel ??_R4QLCDNumber@@6BQObject@@@
rdata$r	ENDS
;	COMDAT ??_R4QPushButton@@6BQPaintDevice@@@
rdata$r	SEGMENT
??_R4QPushButton@@6BQPaintDevice@@@ DD 01H		; QPushButton::`RTTI Complete Object Locator'
	DD	010H
	DD	00H
	DD	imagerel ??_R0?AVQPushButton@@@8
	DD	imagerel ??_R3QPushButton@@8
	DD	imagerel ??_R4QPushButton@@6BQPaintDevice@@@
rdata$r	ENDS
;	COMDAT ??_R2QAbstractButton@@8
rdata$r	SEGMENT
??_R2QAbstractButton@@8 DD imagerel ??_R1A@?0A@EA@QAbstractButton@@8 ; QAbstractButton::`RTTI Base Class Array'
	DD	imagerel ??_R1A@?0A@EA@QWidget@@8
	DD	imagerel ??_R1A@?0A@EA@QObject@@8
	DD	imagerel ??_R1BA@?0A@EA@QPaintDevice@@8
	ORG $+3
rdata$r	ENDS
;	COMDAT ??_R3QAbstractButton@@8
rdata$r	SEGMENT
??_R3QAbstractButton@@8 DD 00H				; QAbstractButton::`RTTI Class Hierarchy Descriptor'
	DD	01H
	DD	04H
	DD	imagerel ??_R2QAbstractButton@@8
rdata$r	ENDS
;	COMDAT ??_R0?AVQAbstractButton@@@8
data$r	SEGMENT
??_R0?AVQAbstractButton@@@8 DQ FLAT:??_7type_info@@6B@	; QAbstractButton `RTTI Type Descriptor'
	DQ	0000000000000000H
	DB	'.?AVQAbstractButton@@', 00H
data$r	ENDS
;	COMDAT ??_R1A@?0A@EA@QAbstractButton@@8
rdata$r	SEGMENT
??_R1A@?0A@EA@QAbstractButton@@8 DD imagerel ??_R0?AVQAbstractButton@@@8 ; QAbstractButton::`RTTI Base Class Descriptor at (0,-1,0,64)'
	DD	03H
	DD	00H
	DD	0ffffffffH
	DD	00H
	DD	040H
	DD	imagerel ??_R3QAbstractButton@@8
rdata$r	ENDS
;	COMDAT ??_R1A@?0A@EA@QPushButton@@8
rdata$r	SEGMENT
??_R1A@?0A@EA@QPushButton@@8 DD imagerel ??_R0?AVQPushButton@@@8 ; QPushButton::`RTTI Base Class Descriptor at (0,-1,0,64)'
	DD	04H
	DD	00H
	DD	0ffffffffH
	DD	00H
	DD	040H
	DD	imagerel ??_R3QPushButton@@8
rdata$r	ENDS
;	COMDAT ??_R2QPushButton@@8
rdata$r	SEGMENT
??_R2QPushButton@@8 DD imagerel ??_R1A@?0A@EA@QPushButton@@8 ; QPushButton::`RTTI Base Class Array'
	DD	imagerel ??_R1A@?0A@EA@QAbstractButton@@8
	DD	imagerel ??_R1A@?0A@EA@QWidget@@8
	DD	imagerel ??_R1A@?0A@EA@QObject@@8
	DD	imagerel ??_R1BA@?0A@EA@QPaintDevice@@8
	ORG $+3
rdata$r	ENDS
;	COMDAT ??_R3QPushButton@@8
rdata$r	SEGMENT
??_R3QPushButton@@8 DD 00H				; QPushButton::`RTTI Class Hierarchy Descriptor'
	DD	01H
	DD	05H
	DD	imagerel ??_R2QPushButton@@8
rdata$r	ENDS
;	COMDAT ??_R0?AVQPushButton@@@8
data$r	SEGMENT
??_R0?AVQPushButton@@@8 DQ FLAT:??_7type_info@@6B@	; QPushButton `RTTI Type Descriptor'
	DQ	0000000000000000H
	DB	'.?AVQPushButton@@', 00H
data$r	ENDS
;	COMDAT ??_R4QPushButton@@6BQObject@@@
rdata$r	SEGMENT
??_R4QPushButton@@6BQObject@@@ DD 01H			; QPushButton::`RTTI Complete Object Locator'
	DD	00H
	DD	00H
	DD	imagerel ??_R0?AVQPushButton@@@8
	DD	imagerel ??_R3QPushButton@@8
	DD	imagerel ??_R4QPushButton@@6BQObject@@@
rdata$r	ENDS
;	COMDAT ??_R4QSpinBox@@6BQPaintDevice@@@
rdata$r	SEGMENT
??_R4QSpinBox@@6BQPaintDevice@@@ DD 01H			; QSpinBox::`RTTI Complete Object Locator'
	DD	010H
	DD	00H
	DD	imagerel ??_R0?AVQSpinBox@@@8
	DD	imagerel ??_R3QSpinBox@@8
	DD	imagerel ??_R4QSpinBox@@6BQPaintDevice@@@
rdata$r	ENDS
;	COMDAT ??_R1A@?0A@EA@QPaintDevice@@8
rdata$r	SEGMENT
??_R1A@?0A@EA@QPaintDevice@@8 DD imagerel ??_R0?AVQPaintDevice@@@8 ; QPaintDevice::`RTTI Base Class Descriptor at (0,-1,0,64)'
	DD	00H
	DD	00H
	DD	0ffffffffH
	DD	00H
	DD	040H
	DD	imagerel ??_R3QPaintDevice@@8
rdata$r	ENDS
;	COMDAT ??_R2QPaintDevice@@8
rdata$r	SEGMENT
??_R2QPaintDevice@@8 DD imagerel ??_R1A@?0A@EA@QPaintDevice@@8 ; QPaintDevice::`RTTI Base Class Array'
	ORG $+3
rdata$r	ENDS
;	COMDAT ??_R3QPaintDevice@@8
rdata$r	SEGMENT
??_R3QPaintDevice@@8 DD 00H				; QPaintDevice::`RTTI Class Hierarchy Descriptor'
	DD	00H
	DD	01H
	DD	imagerel ??_R2QPaintDevice@@8
rdata$r	ENDS
;	COMDAT ??_R0?AVQPaintDevice@@@8
data$r	SEGMENT
??_R0?AVQPaintDevice@@@8 DQ FLAT:??_7type_info@@6B@	; QPaintDevice `RTTI Type Descriptor'
	DQ	0000000000000000H
	DB	'.?AVQPaintDevice@@', 00H
data$r	ENDS
;	COMDAT ??_R1BA@?0A@EA@QPaintDevice@@8
rdata$r	SEGMENT
??_R1BA@?0A@EA@QPaintDevice@@8 DD imagerel ??_R0?AVQPaintDevice@@@8 ; QPaintDevice::`RTTI Base Class Descriptor at (16,-1,0,64)'
	DD	00H
	DD	010H
	DD	0ffffffffH
	DD	00H
	DD	040H
	DD	imagerel ??_R3QPaintDevice@@8
rdata$r	ENDS
CONST	SEGMENT
$SG120962 DB	'F:\Qt\Qt5.6.0\5.6\msvc2015_64\include\QtCore/qmetatype.h'
	DB	00H
	ORG $+7
$SG120963 DB	'qRegisterNormalizedMetaType was called with a not normal'
	DB	'ized type name, please call qRegisterMetaType instead.', 00H
	ORG $+1
$SG120964 DB	'qRegisterNormalizedMetaType', 00H
	ORG $+4
?qt_meta_stringdata_TimingShutdown@@3Uqt_meta_stringdata_TimingShutdown_t@@B DD 0ffffffffH ; qt_meta_stringdata_TimingShutdown
	DD	0eH
	DD	00H
	ORG $+4
	DQ	0000000000000060H
	DD	0ffffffffH
	DD	07H
	DD	00H
	ORG $+4
	DQ	0000000000000057H
	DD	0ffffffffH
	DD	00H
	DD	00H
	ORG $+4
	DQ	0000000000000047H
	DD	0ffffffffH
	DD	09H
	DD	00H
	ORG $+4
	DQ	0000000000000030H
	DB	'TimingShutdown', 00H, 'exitPro', 00H, 00H, 'timeEvent', 00H
	ORG $+6
	ORG $+8
?qt_meta_data_TimingShutdown@@3QBIB DD 07H		; qt_meta_data_TimingShutdown
	DD	00H
	DD	00H
	DD	00H
	DD	02H
	DD	0eH
	DD	00H
	DD	00H
	DD	00H
	DD	00H
	DD	00H
	DD	00H
	DD	00H
	DD	01H
	DD	01H
	DD	00H
	DD	018H
	DD	02H
	DD	06H
	DD	03H
	DD	00H
	DD	019H
	DD	02H
	DD	08H
	DD	02bH
	DD	02bH
	DD	00H
	ORG $+4
$SG120354 DB	'F:\Qt\Qt5.6.0\5.6\msvc2015_64\include\QtCore/qmetatype.h'
	DB	00H
	ORG $+7
$SG120355 DB	'qRegisterNormalizedMetaType was called with a not normal'
	DB	'ized type name, please call qRegisterMetaType instead.', 00H
	ORG $+1
$SG120356 DB	'qRegisterNormalizedMetaType', 00H
	ORG $+4
$SG122424 DB	'F:\Qt\Qt5.6.0\5.6\msvc2015_64\include\QtCore/qmetatype.h'
	DB	00H
	ORG $+7
$SG122425 DB	'qRegisterNormalizedMetaType was called with a not normal'
	DB	'ized type name, please call qRegisterMetaType instead.', 00H
	ORG $+1
$SG122426 DB	'qRegisterNormalizedMetaType', 00H
	ORG $+4
$SG120658 DB	'F:\Qt\Qt5.6.0\5.6\msvc2015_64\include\QtCore/qmetatype.h'
	DB	00H
	ORG $+7
$SG120659 DB	'qRegisterNormalizedMetaType was called with a not normal'
	DB	'ized type name, please call qRegisterMetaType instead.', 00H
	ORG $+1
$SG120660 DB	'qRegisterNormalizedMetaType', 00H
CONST	ENDS
;	COMDAT ??_R2QWidget@@8
rdata$r	SEGMENT
??_R2QWidget@@8 DD imagerel ??_R1A@?0A@EA@QWidget@@8	; QWidget::`RTTI Base Class Array'
	DD	imagerel ??_R1A@?0A@EA@QObject@@8
	DD	imagerel ??_R1BA@?0A@EA@QPaintDevice@@8
	ORG $+3
rdata$r	ENDS
;	COMDAT ??_R3QWidget@@8
rdata$r	SEGMENT
??_R3QWidget@@8 DD 00H					; QWidget::`RTTI Class Hierarchy Descriptor'
	DD	01H
	DD	03H
	DD	imagerel ??_R2QWidget@@8
rdata$r	ENDS
;	COMDAT ??_R0?AVQWidget@@@8
data$r	SEGMENT
??_R0?AVQWidget@@@8 DQ FLAT:??_7type_info@@6B@		; QWidget `RTTI Type Descriptor'
	DQ	0000000000000000H
	DB	'.?AVQWidget@@', 00H
data$r	ENDS
;	COMDAT ??_R1A@?0A@EA@QWidget@@8
rdata$r	SEGMENT
??_R1A@?0A@EA@QWidget@@8 DD imagerel ??_R0?AVQWidget@@@8 ; QWidget::`RTTI Base Class Descriptor at (0,-1,0,64)'
	DD	02H
	DD	00H
	DD	0ffffffffH
	DD	00H
	DD	040H
	DD	imagerel ??_R3QWidget@@8
rdata$r	ENDS
;	COMDAT ??_R2QAbstractSpinBox@@8
rdata$r	SEGMENT
??_R2QAbstractSpinBox@@8 DD imagerel ??_R1A@?0A@EA@QAbstractSpinBox@@8 ; QAbstractSpinBox::`RTTI Base Class Array'
	DD	imagerel ??_R1A@?0A@EA@QWidget@@8
	DD	imagerel ??_R1A@?0A@EA@QObject@@8
	DD	imagerel ??_R1BA@?0A@EA@QPaintDevice@@8
	ORG $+3
rdata$r	ENDS
;	COMDAT ??_R3QAbstractSpinBox@@8
rdata$r	SEGMENT
??_R3QAbstractSpinBox@@8 DD 00H				; QAbstractSpinBox::`RTTI Class Hierarchy Descriptor'
	DD	01H
	DD	04H
	DD	imagerel ??_R2QAbstractSpinBox@@8
rdata$r	ENDS
;	COMDAT ??_R0?AVQAbstractSpinBox@@@8
data$r	SEGMENT
??_R0?AVQAbstractSpinBox@@@8 DQ FLAT:??_7type_info@@6B@	; QAbstractSpinBox `RTTI Type Descriptor'
	DQ	0000000000000000H
	DB	'.?AVQAbstractSpinBox@@', 00H
data$r	ENDS
;	COMDAT ??_R1A@?0A@EA@QAbstractSpinBox@@8
rdata$r	SEGMENT
??_R1A@?0A@EA@QAbstractSpinBox@@8 DD imagerel ??_R0?AVQAbstractSpinBox@@@8 ; QAbstractSpinBox::`RTTI Base Class Descriptor at (0,-1,0,64)'
	DD	03H
	DD	00H
	DD	0ffffffffH
	DD	00H
	DD	040H
	DD	imagerel ??_R3QAbstractSpinBox@@8
rdata$r	ENDS
;	COMDAT ??_R1A@?0A@EA@QSpinBox@@8
rdata$r	SEGMENT
??_R1A@?0A@EA@QSpinBox@@8 DD imagerel ??_R0?AVQSpinBox@@@8 ; QSpinBox::`RTTI Base Class Descriptor at (0,-1,0,64)'
	DD	04H
	DD	00H
	DD	0ffffffffH
	DD	00H
	DD	040H
	DD	imagerel ??_R3QSpinBox@@8
rdata$r	ENDS
;	COMDAT ??_R2QSpinBox@@8
rdata$r	SEGMENT
??_R2QSpinBox@@8 DD imagerel ??_R1A@?0A@EA@QSpinBox@@8	; QSpinBox::`RTTI Base Class Array'
	DD	imagerel ??_R1A@?0A@EA@QAbstractSpinBox@@8
	DD	imagerel ??_R1A@?0A@EA@QWidget@@8
	DD	imagerel ??_R1A@?0A@EA@QObject@@8
	DD	imagerel ??_R1BA@?0A@EA@QPaintDevice@@8
	ORG $+3
rdata$r	ENDS
;	COMDAT ??_R3QSpinBox@@8
rdata$r	SEGMENT
??_R3QSpinBox@@8 DD 00H					; QSpinBox::`RTTI Class Hierarchy Descriptor'
	DD	01H
	DD	05H
	DD	imagerel ??_R2QSpinBox@@8
rdata$r	ENDS
;	COMDAT ??_R0?AVQSpinBox@@@8
data$r	SEGMENT
??_R0?AVQSpinBox@@@8 DQ FLAT:??_7type_info@@6B@		; QSpinBox `RTTI Type Descriptor'
	DQ	0000000000000000H
	DB	'.?AVQSpinBox@@', 00H
data$r	ENDS
;	COMDAT ??_R4QSpinBox@@6BQObject@@@
rdata$r	SEGMENT
??_R4QSpinBox@@6BQObject@@@ DD 01H			; QSpinBox::`RTTI Complete Object Locator'
	DD	00H
	DD	00H
	DD	imagerel ??_R0?AVQSpinBox@@@8
	DD	imagerel ??_R3QSpinBox@@8
	DD	imagerel ??_R4QSpinBox@@6BQObject@@@
rdata$r	ENDS
;	COMDAT ??_SQPushButton@@6BQPaintDevice@@@
CONST	SEGMENT
??_SQPushButton@@6BQPaintDevice@@@ DQ FLAT:??_R4QPushButton@@6BQPaintDevice@@@ ; QPushButton::`local vftable'
	DQ	FLAT:??_EQPushButton@@WBA@EAAPEAXI@Z
	DQ	FLAT:?devType@QWidget@@UEBAHXZ
	DQ	FLAT:?paintEngine@QWidget@@UEBAPEAVQPaintEngine@@XZ
	DQ	FLAT:?metric@QWidget@@MEBAHW4PaintDeviceMetric@QPaintDevice@@@Z
	DQ	FLAT:?initPainter@QWidget@@MEBAXPEAVQPainter@@@Z
	DQ	FLAT:?redirected@QWidget@@MEBAPEAVQPaintDevice@@PEAVQPoint@@@Z
	DQ	FLAT:?sharedPainter@QWidget@@MEBAPEAVQPainter@@XZ
CONST	ENDS
;	COMDAT ??_SQPushButton@@6BQObject@@@
CONST	SEGMENT
??_SQPushButton@@6BQObject@@@ DQ FLAT:??_R4QPushButton@@6BQObject@@@ ; QPushButton::`local vftable'
	DQ	FLAT:?metaObject@QPushButton@@UEBAPEBUQMetaObject@@XZ
	DQ	FLAT:?qt_metacast@QPushButton@@UEAAPEAXPEBD@Z
	DQ	FLAT:?qt_metacall@QPushButton@@UEAAHW4Call@QMetaObject@@HPEAPEAX@Z
	DQ	FLAT:??_EQPushButton@@UEAAPEAXI@Z
	DQ	FLAT:?event@QPushButton@@MEAA_NPEAVQEvent@@@Z
	DQ	FLAT:?eventFilter@QObject@@UEAA_NPEAV1@PEAVQEvent@@@Z
	DQ	FLAT:?timerEvent@QAbstractButton@@MEAAXPEAVQTimerEvent@@@Z
	DQ	FLAT:?childEvent@QObject@@MEAAXPEAVQChildEvent@@@Z
	DQ	FLAT:?customEvent@QObject@@MEAAXPEAVQEvent@@@Z
	DQ	FLAT:?connectNotify@QObject@@MEAAXAEBVQMetaMethod@@@Z
	DQ	FLAT:?disconnectNotify@QObject@@MEAAXAEBVQMetaMethod@@@Z
	DQ	FLAT:?setVisible@QWidget@@UEAAX_N@Z
	DQ	FLAT:?sizeHint@QPushButton@@UEBA?AVQSize@@XZ
	DQ	FLAT:?minimumSizeHint@QPushButton@@UEBA?AVQSize@@XZ
	DQ	FLAT:?heightForWidth@QWidget@@UEBAHH@Z
	DQ	FLAT:?hasHeightForWidth@QWidget@@UEBA_NXZ
	DQ	FLAT:?mousePressEvent@QAbstractButton@@MEAAXPEAVQMouseEvent@@@Z
	DQ	FLAT:?mouseReleaseEvent@QAbstractButton@@MEAAXPEAVQMouseEvent@@@Z
	DQ	FLAT:?mouseDoubleClickEvent@QWidget@@MEAAXPEAVQMouseEvent@@@Z
	DQ	FLAT:?mouseMoveEvent@QAbstractButton@@MEAAXPEAVQMouseEvent@@@Z
	DQ	FLAT:?wheelEvent@QWidget@@MEAAXPEAVQWheelEvent@@@Z
	DQ	FLAT:?keyPressEvent@QPushButton@@MEAAXPEAVQKeyEvent@@@Z
	DQ	FLAT:?keyReleaseEvent@QAbstractButton@@MEAAXPEAVQKeyEvent@@@Z
	DQ	FLAT:?focusInEvent@QPushButton@@MEAAXPEAVQFocusEvent@@@Z
	DQ	FLAT:?focusOutEvent@QPushButton@@MEAAXPEAVQFocusEvent@@@Z
	DQ	FLAT:?enterEvent@QWidget@@MEAAXPEAVQEvent@@@Z
	DQ	FLAT:?leaveEvent@QWidget@@MEAAXPEAVQEvent@@@Z
	DQ	FLAT:?paintEvent@QPushButton@@MEAAXPEAVQPaintEvent@@@Z
	DQ	FLAT:?moveEvent@QWidget@@MEAAXPEAVQMoveEvent@@@Z
	DQ	FLAT:?resizeEvent@QWidget@@MEAAXPEAVQResizeEvent@@@Z
	DQ	FLAT:?closeEvent@QWidget@@MEAAXPEAVQCloseEvent@@@Z
	DQ	FLAT:?contextMenuEvent@QWidget@@MEAAXPEAVQContextMenuEvent@@@Z
	DQ	FLAT:?tabletEvent@QWidget@@MEAAXPEAVQTabletEvent@@@Z
	DQ	FLAT:?actionEvent@QWidget@@MEAAXPEAVQActionEvent@@@Z
	DQ	FLAT:?dragEnterEvent@QWidget@@MEAAXPEAVQDragEnterEvent@@@Z
	DQ	FLAT:?dragMoveEvent@QWidget@@MEAAXPEAVQDragMoveEvent@@@Z
	DQ	FLAT:?dragLeaveEvent@QWidget@@MEAAXPEAVQDragLeaveEvent@@@Z
	DQ	FLAT:?dropEvent@QWidget@@MEAAXPEAVQDropEvent@@@Z
	DQ	FLAT:?showEvent@QWidget@@MEAAXPEAVQShowEvent@@@Z
	DQ	FLAT:?hideEvent@QWidget@@MEAAXPEAVQHideEvent@@@Z
	DQ	FLAT:?nativeEvent@QWidget@@MEAA_NAEBVQByteArray@@PEAXPEAJ@Z
	DQ	FLAT:?changeEvent@QAbstractButton@@MEAAXPEAVQEvent@@@Z
	DQ	FLAT:?inputMethodEvent@QWidget@@MEAAXPEAVQInputMethodEvent@@@Z
	DQ	FLAT:?inputMethodQuery@QWidget@@UEBA?AVQVariant@@W4InputMethodQuery@Qt@@@Z
	DQ	FLAT:?focusNextPrevChild@QWidget@@MEAA_N_N@Z
	DQ	FLAT:?hitButton@QAbstractButton@@MEBA_NAEBVQPoint@@@Z
	DQ	FLAT:?checkStateSet@QAbstractButton@@MEAAXXZ
	DQ	FLAT:?nextCheckState@QAbstractButton@@MEAAXXZ
CONST	ENDS
PUBLIC	?__empty_global_delete@@YAXPEAX@Z		; __empty_global_delete
PUBLIC	?__empty_global_delete@@YAXPEAX_K@Z		; __empty_global_delete
PUBLIC	?qt_noop@@YAXXZ					; qt_noop
PUBLIC	??C?$QScopedPointer@VQObjectData@@U?$QScopedPointerDeleter@VQObjectData@@@@@@QEBAPEAVQObjectData@@XZ ; QScopedPointer<QObjectData,QScopedPointerDeleter<QObjectData> >::operator->
PUBLIC	?metaObject@TimingShutdown@@UEBAPEBUQMetaObject@@XZ ; TimingShutdown::metaObject
PUBLIC	?qt_metacast@TimingShutdown@@UEAAPEAXPEBD@Z	; TimingShutdown::qt_metacast
PUBLIC	?qt_metacall@TimingShutdown@@UEAAHW4Call@QMetaObject@@HPEAPEAX@Z ; TimingShutdown::qt_metacall
PUBLIC	?qt_static_metacall@TimingShutdown@@CAXPEAVQObject@@W4Call@QMetaObject@@HPEAPEAX@Z ; TimingShutdown::qt_static_metacall
PUBLIC	?exitPro@TimingShutdown@@QEAAXXZ		; TimingShutdown::exitPro
PUBLIC	?staticMetaObject@TimingShutdown@@2UQMetaObject@@B ; TimingShutdown::staticMetaObject
PUBLIC	??_C@_0DO@IBGEJBBC@F?3?2Qt?2Qt5?46?40?25?46?2msvc2015_64?2in@ ; `string'
PUBLIC	??_C@_01LPLHEDKD@d?$AA@				; `string'
EXTRN	strcmp:PROC
EXTRN	__imp_?qt_assert@@YAXPEBD0H@Z:PROC
EXTRN	__imp_?activate@QMetaObject@@SAXPEAVQObject@@PEBU1@HPEAPEAX@Z:PROC
EXTRN	__imp_?dynamicMetaObject@QObjectData@@QEBAPEAUQMetaObject@@XZ:PROC
EXTRN	__imp_?qt_metacast@QWidget@@UEAAPEAXPEBD@Z:PROC
EXTRN	__imp_?qt_metacall@QWidget@@UEAAHW4Call@QMetaObject@@HPEAPEAX@Z:PROC
EXTRN	?timeEvent@TimingShutdown@@AEAAXXZ:PROC		; TimingShutdown::timeEvent
EXTRN	__imp_?staticMetaObject@QWidget@@2UQMetaObject@@B:BYTE
_BSS	SEGMENT
?staticMetaObject@TimingShutdown@@2UQMetaObject@@B DB 030H DUP (?) ; TimingShutdown::staticMetaObject
_BSS	ENDS
;	COMDAT pdata
pdata	SEGMENT
$pdata$??C?$QScopedPointer@VQObjectData@@U?$QScopedPointerDeleter@VQObjectData@@@@@@QEBAPEAVQObjectData@@XZ DD imagerel $LN5
	DD	imagerel $LN5+82
	DD	imagerel $unwind$??C?$QScopedPointer@VQObjectData@@U?$QScopedPointerDeleter@VQObjectData@@@@@@QEBAPEAVQObjectData@@XZ
pdata	ENDS
pdata	SEGMENT
$pdata$?metaObject@TimingShutdown@@UEBAPEBUQMetaObject@@XZ DD imagerel $LN5
	DD	imagerel $LN5+88
	DD	imagerel $unwind$?metaObject@TimingShutdown@@UEBAPEBUQMetaObject@@XZ
$pdata$?qt_metacast@TimingShutdown@@UEAAPEAXPEBD@Z DD imagerel $LN5
	DD	imagerel $LN5+75
	DD	imagerel $unwind$?qt_metacast@TimingShutdown@@UEAAPEAXPEBD@Z
$pdata$?qt_metacall@TimingShutdown@@UEAAHW4Call@QMetaObject@@HPEAPEAX@Z DD imagerel $LN9
	DD	imagerel $LN9+174
	DD	imagerel $unwind$?qt_metacall@TimingShutdown@@UEAAHW4Call@QMetaObject@@HPEAPEAX@Z
$pdata$?qt_static_metacall@TimingShutdown@@CAXPEAVQObject@@W4Call@QMetaObject@@HPEAPEAX@Z DD imagerel $LN15
	DD	imagerel $LN15+249
	DD	imagerel $unwind$?qt_static_metacall@TimingShutdown@@CAXPEAVQObject@@W4Call@QMetaObject@@HPEAPEAX@Z
$pdata$?exitPro@TimingShutdown@@QEAAXXZ DD imagerel $LN3
	DD	imagerel $LN3+38
	DD	imagerel $unwind$?exitPro@TimingShutdown@@QEAAXXZ
pdata	ENDS
CRT$XCU	SEGMENT
??staticMetaObject$initializer$@TimingShutdown@@2P6AXXZEA@@3P6AXXZEA DQ FLAT:??__E?staticMetaObject@TimingShutdown@@2UQMetaObject@@B@@YAXXZ ; ??staticMetaObject$initializer$@TimingShutdown@@2P6AXXZEA@@3P6AXXZEA
CRT$XCU	ENDS
;	COMDAT ??_C@_01LPLHEDKD@d?$AA@
CONST	SEGMENT
??_C@_01LPLHEDKD@d?$AA@ DB 'd', 00H			; `string'
CONST	ENDS
;	COMDAT ??_C@_0DO@IBGEJBBC@F?3?2Qt?2Qt5?46?40?25?46?2msvc2015_64?2in@
CONST	SEGMENT
??_C@_0DO@IBGEJBBC@F?3?2Qt?2Qt5?46?40?25?46?2msvc2015_64?2in@ DB 'F:\Qt\Q'
	DB	't5.6.0\5.6\msvc2015_64\include\QtCore/qscopedpointer.h', 00H ; `string'
CONST	ENDS
xdata	SEGMENT
$unwind$?metaObject@TimingShutdown@@UEBAPEBUQMetaObject@@XZ DD 010901H
	DD	06209H
$unwind$?qt_metacast@TimingShutdown@@UEAAPEAXPEBD@Z DD 010e01H
	DD	0420eH
$unwind$?qt_metacall@TimingShutdown@@UEAAHW4Call@QMetaObject@@HPEAPEAX@Z DD 011701H
	DD	04217H
$unwind$?qt_static_metacall@TimingShutdown@@CAXPEAVQObject@@W4Call@QMetaObject@@HPEAPEAX@Z DD 011701H
	DD	0a217H
$unwind$?exitPro@TimingShutdown@@QEAAXXZ DD 010901H
	DD	04209H
xdata	ENDS
;	COMDAT xdata
xdata	SEGMENT
$unwind$??C?$QScopedPointer@VQObjectData@@U?$QScopedPointerDeleter@VQObjectData@@@@@@QEBAPEAVQObjectData@@XZ DD 010901H
	DD	06209H
xdata	ENDS
; Function compile flags: /Odsp
;	COMDAT ??_EQLabel@@WBA@EAAPEAXI@Z
_TEXT	SEGMENT
??_EQLabel@@WBA@EAAPEAXI@Z PROC				; [thunk]:QLabel::`vector deleting destructor', COMDAT
	sub	rcx, 16
	jmp	??_EQLabel@@UEAAPEAXI@Z
??_EQLabel@@WBA@EAAPEAXI@Z ENDP				; [thunk]:QLabel::`vector deleting destructor'
_TEXT	ENDS
; Function compile flags: /Odsp
;	COMDAT ??_EQLCDNumber@@WBA@EAAPEAXI@Z
_TEXT	SEGMENT
??_EQLCDNumber@@WBA@EAAPEAXI@Z PROC			; [thunk]:QLCDNumber::`vector deleting destructor', COMDAT
	sub	rcx, 16
	jmp	??_EQLCDNumber@@UEAAPEAXI@Z
??_EQLCDNumber@@WBA@EAAPEAXI@Z ENDP			; [thunk]:QLCDNumber::`vector deleting destructor'
_TEXT	ENDS
; Function compile flags: /Odsp
;	COMDAT ??_EQPushButton@@WBA@EAAPEAXI@Z
_TEXT	SEGMENT
??_EQPushButton@@WBA@EAAPEAXI@Z PROC			; [thunk]:QPushButton::`vector deleting destructor', COMDAT
	sub	rcx, 16
	jmp	??_EQPushButton@@UEAAPEAXI@Z
??_EQPushButton@@WBA@EAAPEAXI@Z ENDP			; [thunk]:QPushButton::`vector deleting destructor'
_TEXT	ENDS
; Function compile flags: /Odsp
;	COMDAT ??_EQSpinBox@@WBA@EAAPEAXI@Z
_TEXT	SEGMENT
??_EQSpinBox@@WBA@EAAPEAXI@Z PROC			; [thunk]:QSpinBox::`vector deleting destructor', COMDAT
	sub	rcx, 16
	jmp	??_EQSpinBox@@UEAAPEAXI@Z
??_EQSpinBox@@WBA@EAAPEAXI@Z ENDP			; [thunk]:QSpinBox::`vector deleting destructor'
_TEXT	ENDS
; Function compile flags: /Odtp
;	COMDAT ??__E?staticMetaObject@TimingShutdown@@2UQMetaObject@@B@@YAXXZ
text$di	SEGMENT
??__E?staticMetaObject@TimingShutdown@@2UQMetaObject@@B@@YAXXZ PROC ; `dynamic initializer for 'TimingShutdown::staticMetaObject'', COMDAT
; File g:\programming\c++_qt_vs\timingshutdown\generatedfiles\debug\moc_timingshutdown.cpp
; Line 95
	mov	rax, QWORD PTR __imp_?staticMetaObject@QWidget@@2UQMetaObject@@B
	mov	QWORD PTR ?staticMetaObject@TimingShutdown@@2UQMetaObject@@B, rax
	lea	rax, OFFSET FLAT:?qt_meta_stringdata_TimingShutdown@@3Uqt_meta_stringdata_TimingShutdown_t@@B
	mov	QWORD PTR ?staticMetaObject@TimingShutdown@@2UQMetaObject@@B+8, rax
; Line 96
	lea	rax, OFFSET FLAT:?qt_meta_data_TimingShutdown@@3QBIB
	mov	QWORD PTR ?staticMetaObject@TimingShutdown@@2UQMetaObject@@B+16, rax
	lea	rax, OFFSET FLAT:?qt_static_metacall@TimingShutdown@@CAXPEAVQObject@@W4Call@QMetaObject@@HPEAPEAX@Z ; TimingShutdown::qt_static_metacall
	mov	QWORD PTR ?staticMetaObject@TimingShutdown@@2UQMetaObject@@B+24, rax
	mov	QWORD PTR ?staticMetaObject@TimingShutdown@@2UQMetaObject@@B+32, 0
	mov	QWORD PTR ?staticMetaObject@TimingShutdown@@2UQMetaObject@@B+40, 0
	ret	0
??__E?staticMetaObject@TimingShutdown@@2UQMetaObject@@B@@YAXXZ ENDP ; `dynamic initializer for 'TimingShutdown::staticMetaObject''
text$di	ENDS
; Function compile flags: /Odtp
_TEXT	SEGMENT
this$ = 48
?exitPro@TimingShutdown@@QEAAXXZ PROC			; TimingShutdown::exitPro
; File g:\programming\c++_qt_vs\timingshutdown\generatedfiles\debug\moc_timingshutdown.cpp
; Line 132
$LN3:
	mov	QWORD PTR [rsp+8], rcx
	sub	rsp, 40					; 00000028H
; Line 133
	xor	r9d, r9d
	xor	r8d, r8d
	lea	rdx, OFFSET FLAT:?staticMetaObject@TimingShutdown@@2UQMetaObject@@B ; TimingShutdown::staticMetaObject
	mov	rcx, QWORD PTR this$[rsp]
	call	QWORD PTR __imp_?activate@QMetaObject@@SAXPEAVQObject@@PEBU1@HPEAPEAX@Z
; Line 134
	add	rsp, 40					; 00000028H
	ret	0
?exitPro@TimingShutdown@@QEAAXXZ ENDP			; TimingShutdown::exitPro
_TEXT	ENDS
; Function compile flags: /Odtp
_TEXT	SEGMENT
tv69 = 32
tv85 = 36
func$1 = 40
_t$2 = 48
result$3 = 56
$T4 = 64
_o$ = 96
_c$ = 104
_id$ = 112
_a$ = 120
?qt_static_metacall@TimingShutdown@@CAXPEAVQObject@@W4Call@QMetaObject@@HPEAPEAX@Z PROC ; TimingShutdown::qt_static_metacall
; File g:\programming\c++_qt_vs\timingshutdown\generatedfiles\debug\moc_timingshutdown.cpp
; Line 71
$LN15:
	mov	QWORD PTR [rsp+32], r9
	mov	DWORD PTR [rsp+24], r8d
	mov	DWORD PTR [rsp+16], edx
	mov	QWORD PTR [rsp+8], rcx
	sub	rsp, 88					; 00000058H
; Line 72
	cmp	DWORD PTR _c$[rsp], 0
	jne	SHORT $LN4@qt_static_
; Line 73
	mov	rax, QWORD PTR _o$[rsp]
	mov	QWORD PTR _t$2[rsp], rax
; Line 75
	mov	eax, DWORD PTR _id$[rsp]
	mov	DWORD PTR tv69[rsp], eax
	cmp	DWORD PTR tv69[rsp], 0
	je	SHORT $LN6@qt_static_
	cmp	DWORD PTR tv69[rsp], 1
	je	SHORT $LN7@qt_static_
	jmp	SHORT $LN8@qt_static_
$LN6@qt_static_:
; Line 76
	mov	rcx, QWORD PTR _t$2[rsp]
	call	?exitPro@TimingShutdown@@QEAAXXZ	; TimingShutdown::exitPro
	jmp	SHORT $LN2@qt_static_
$LN7@qt_static_:
; Line 77
	mov	rcx, QWORD PTR _t$2[rsp]
	call	?timeEvent@TimingShutdown@@AEAAXXZ	; TimingShutdown::timeEvent
$LN8@qt_static_:
$LN2@qt_static_:
; Line 80
	jmp	$LN5@qt_static_
$LN4@qt_static_:
	cmp	DWORD PTR _c$[rsp], 10
	jne	$LN9@qt_static_
; Line 81
	mov	eax, 8
	imul	rax, rax, 0
	mov	rcx, QWORD PTR _a$[rsp]
	mov	rax, QWORD PTR [rcx+rax]
	mov	QWORD PTR result$3[rsp], rax
; Line 82
	mov	eax, 8
	imul	rax, rax, 1
	mov	rcx, QWORD PTR _a$[rsp]
	mov	rax, QWORD PTR [rcx+rax]
	mov	QWORD PTR func$1[rsp], rax
; Line 85
	lea	rax, OFFSET FLAT:?exitPro@TimingShutdown@@QEAAXXZ ; TimingShutdown::exitPro
	mov	QWORD PTR $T4[rsp], rax
	mov	DWORD PTR $T4[rsp+8], 0
	mov	rax, QWORD PTR func$1[rsp]
	mov	rcx, QWORD PTR $T4[rsp]
	cmp	QWORD PTR [rax], rcx
	jne	SHORT $LN13@qt_static_
	mov	rax, QWORD PTR func$1[rsp]
	cmp	QWORD PTR [rax], 0
	je	SHORT $LN12@qt_static_
	mov	rax, QWORD PTR func$1[rsp]
	mov	ecx, DWORD PTR $T4[rsp+8]
	cmp	DWORD PTR [rax+8], ecx
	jne	SHORT $LN13@qt_static_
$LN12@qt_static_:
	mov	DWORD PTR tv85[rsp], 1
	jmp	SHORT $LN14@qt_static_
$LN13@qt_static_:
	mov	DWORD PTR tv85[rsp], 0
$LN14@qt_static_:
	cmp	DWORD PTR tv85[rsp], 0
	je	SHORT $LN10@qt_static_
; Line 86
	mov	rax, QWORD PTR result$3[rsp]
	mov	DWORD PTR [rax], 0
$LN10@qt_static_:
$LN9@qt_static_:
$LN5@qt_static_:
; Line 92
	add	rsp, 88					; 00000058H
	ret	0
?qt_static_metacall@TimingShutdown@@CAXPEAVQObject@@W4Call@QMetaObject@@HPEAPEAX@Z ENDP ; TimingShutdown::qt_static_metacall
_TEXT	ENDS
; Function compile flags: /Odtp
_TEXT	SEGMENT
this$ = 48
_c$ = 56
_id$ = 64
_a$ = 72
?qt_metacall@TimingShutdown@@UEAAHW4Call@QMetaObject@@HPEAPEAX@Z PROC ; TimingShutdown::qt_metacall
; File g:\programming\c++_qt_vs\timingshutdown\generatedfiles\debug\moc_timingshutdown.cpp
; Line 114
$LN9:
	mov	QWORD PTR [rsp+32], r9
	mov	DWORD PTR [rsp+24], r8d
	mov	DWORD PTR [rsp+16], edx
	mov	QWORD PTR [rsp+8], rcx
	sub	rsp, 40					; 00000028H
; Line 115
	mov	r9, QWORD PTR _a$[rsp]
	mov	r8d, DWORD PTR _id$[rsp]
	mov	edx, DWORD PTR _c$[rsp]
	mov	rcx, QWORD PTR this$[rsp]
	call	QWORD PTR __imp_?qt_metacall@QWidget@@UEAAHW4Call@QMetaObject@@HPEAPEAX@Z
	mov	DWORD PTR _id$[rsp], eax
; Line 116
	cmp	DWORD PTR _id$[rsp], 0
	jge	SHORT $LN2@qt_metacal
; Line 117
	mov	eax, DWORD PTR _id$[rsp]
	jmp	SHORT $LN1@qt_metacal
$LN2@qt_metacal:
; Line 118
	cmp	DWORD PTR _c$[rsp], 0
	jne	SHORT $LN3@qt_metacal
; Line 119
	cmp	DWORD PTR _id$[rsp], 2
	jge	SHORT $LN5@qt_metacal
; Line 120
	mov	r9, QWORD PTR _a$[rsp]
	mov	r8d, DWORD PTR _id$[rsp]
	mov	edx, DWORD PTR _c$[rsp]
	mov	rcx, QWORD PTR this$[rsp]
	call	?qt_static_metacall@TimingShutdown@@CAXPEAVQObject@@W4Call@QMetaObject@@HPEAPEAX@Z ; TimingShutdown::qt_static_metacall
$LN5@qt_metacal:
; Line 121
	mov	eax, DWORD PTR _id$[rsp]
	sub	eax, 2
	mov	DWORD PTR _id$[rsp], eax
	jmp	SHORT $LN4@qt_metacal
$LN3@qt_metacal:
; Line 122
	cmp	DWORD PTR _c$[rsp], 12
	jne	SHORT $LN6@qt_metacal
; Line 123
	cmp	DWORD PTR _id$[rsp], 2
	jge	SHORT $LN7@qt_metacal
; Line 124
	mov	eax, 8
	imul	rax, rax, 0
	mov	rcx, QWORD PTR _a$[rsp]
	mov	rax, QWORD PTR [rcx+rax]
	mov	DWORD PTR [rax], -1
$LN7@qt_metacal:
; Line 125
	mov	eax, DWORD PTR _id$[rsp]
	sub	eax, 2
	mov	DWORD PTR _id$[rsp], eax
$LN6@qt_metacal:
$LN4@qt_metacal:
; Line 127
	mov	eax, DWORD PTR _id$[rsp]
$LN1@qt_metacal:
; Line 128
	add	rsp, 40					; 00000028H
	ret	0
?qt_metacall@TimingShutdown@@UEAAHW4Call@QMetaObject@@HPEAPEAX@Z ENDP ; TimingShutdown::qt_metacall
_TEXT	ENDS
; Function compile flags: /Odtp
_TEXT	SEGMENT
this$ = 48
_clname$ = 56
?qt_metacast@TimingShutdown@@UEAAPEAXPEBD@Z PROC	; TimingShutdown::qt_metacast
; File g:\programming\c++_qt_vs\timingshutdown\generatedfiles\debug\moc_timingshutdown.cpp
; Line 106
$LN5:
	mov	QWORD PTR [rsp+16], rdx
	mov	QWORD PTR [rsp+8], rcx
	sub	rsp, 40					; 00000028H
; Line 107
	cmp	QWORD PTR _clname$[rsp], 0
	jne	SHORT $LN2@qt_metacas
	xor	eax, eax
	jmp	SHORT $LN1@qt_metacas
$LN2@qt_metacas:
; Line 108
	lea	rdx, OFFSET FLAT:?qt_meta_stringdata_TimingShutdown@@3Uqt_meta_stringdata_TimingShutdown_t@@B+96
	mov	rcx, QWORD PTR _clname$[rsp]
	call	strcmp
	test	eax, eax
	jne	SHORT $LN3@qt_metacas
; Line 109
	mov	rax, QWORD PTR this$[rsp]
	jmp	SHORT $LN1@qt_metacas
$LN3@qt_metacas:
; Line 110
	mov	rdx, QWORD PTR _clname$[rsp]
	mov	rcx, QWORD PTR this$[rsp]
	call	QWORD PTR __imp_?qt_metacast@QWidget@@UEAAPEAXPEBD@Z
$LN1@qt_metacas:
; Line 111
	add	rsp, 40					; 00000028H
	ret	0
?qt_metacast@TimingShutdown@@UEAAPEAXPEBD@Z ENDP	; TimingShutdown::qt_metacast
_TEXT	ENDS
; Function compile flags: /Odtp
_TEXT	SEGMENT
tv82 = 32
this$ = 64
?metaObject@TimingShutdown@@UEBAPEBUQMetaObject@@XZ PROC ; TimingShutdown::metaObject
; File g:\programming\c++_qt_vs\timingshutdown\generatedfiles\debug\moc_timingshutdown.cpp
; Line 101
$LN5:
	mov	QWORD PTR [rsp+8], rcx
	sub	rsp, 56					; 00000038H
; Line 102
	mov	rax, QWORD PTR this$[rsp]
	add	rax, 8
	mov	rcx, rax
	call	??C?$QScopedPointer@VQObjectData@@U?$QScopedPointerDeleter@VQObjectData@@@@@@QEBAPEAVQObjectData@@XZ ; QScopedPointer<QObjectData,QScopedPointerDeleter<QObjectData> >::operator->
	cmp	QWORD PTR [rax+40], 0
	je	SHORT $LN3@metaObject
	mov	rax, QWORD PTR this$[rsp]
	add	rax, 8
	mov	rcx, rax
	call	??C?$QScopedPointer@VQObjectData@@U?$QScopedPointerDeleter@VQObjectData@@@@@@QEBAPEAVQObjectData@@XZ ; QScopedPointer<QObjectData,QScopedPointerDeleter<QObjectData> >::operator->
	mov	rcx, rax
	call	QWORD PTR __imp_?dynamicMetaObject@QObjectData@@QEBAPEAUQMetaObject@@XZ
	mov	QWORD PTR tv82[rsp], rax
	jmp	SHORT $LN4@metaObject
$LN3@metaObject:
	lea	rax, OFFSET FLAT:?staticMetaObject@TimingShutdown@@2UQMetaObject@@B ; TimingShutdown::staticMetaObject
	mov	QWORD PTR tv82[rsp], rax
$LN4@metaObject:
	mov	rax, QWORD PTR tv82[rsp]
; Line 103
	add	rsp, 56					; 00000038H
	ret	0
?metaObject@TimingShutdown@@UEBAPEBUQMetaObject@@XZ ENDP ; TimingShutdown::metaObject
_TEXT	ENDS
; Function compile flags: /Odtp
;	COMDAT ??C?$QScopedPointer@VQObjectData@@U?$QScopedPointerDeleter@VQObjectData@@@@@@QEBAPEAVQObjectData@@XZ
_TEXT	SEGMENT
tv69 = 32
this$ = 64
??C?$QScopedPointer@VQObjectData@@U?$QScopedPointerDeleter@VQObjectData@@@@@@QEBAPEAVQObjectData@@XZ PROC ; QScopedPointer<QObjectData,QScopedPointerDeleter<QObjectData> >::operator->, COMDAT
; File f:\qt\qt5.6.0\5.6\msvc2015_64\include\qtcore\qscopedpointer.h
; Line 111
$LN5:
	mov	QWORD PTR [rsp+8], rcx
	sub	rsp, 56					; 00000038H
; Line 112
	mov	rax, QWORD PTR this$[rsp]
	cmp	QWORD PTR [rax], 0
	jne	SHORT $LN3@operator
	mov	r8d, 112				; 00000070H
	lea	rdx, OFFSET FLAT:??_C@_0DO@IBGEJBBC@F?3?2Qt?2Qt5?46?40?25?46?2msvc2015_64?2in@
	lea	rcx, OFFSET FLAT:??_C@_01LPLHEDKD@d?$AA@
	call	QWORD PTR __imp_?qt_assert@@YAXPEBD0H@Z
	mov	DWORD PTR tv69[rsp], 0
	jmp	SHORT $LN4@operator
$LN3@operator:
	call	?qt_noop@@YAXXZ				; qt_noop
	mov	DWORD PTR tv69[rsp], 0
$LN4@operator:
; Line 113
	mov	rax, QWORD PTR this$[rsp]
	mov	rax, QWORD PTR [rax]
; Line 114
	add	rsp, 56					; 00000038H
	ret	0
??C?$QScopedPointer@VQObjectData@@U?$QScopedPointerDeleter@VQObjectData@@@@@@QEBAPEAVQObjectData@@XZ ENDP ; QScopedPointer<QObjectData,QScopedPointerDeleter<QObjectData> >::operator->
_TEXT	ENDS
; Function compile flags: /Odtp
;	COMDAT ?qt_noop@@YAXXZ
_TEXT	SEGMENT
?qt_noop@@YAXXZ PROC					; qt_noop, COMDAT
; File f:\qt\qt5.6.0\5.6\msvc2015_64\include\qtcore\qglobal.h
; Line 624
	ret	0
?qt_noop@@YAXXZ ENDP					; qt_noop
_TEXT	ENDS
; Function compile flags: /Odtp
;	COMDAT ?__empty_global_delete@@YAXPEAX_K@Z
_TEXT	SEGMENT
__formal$ = 8
__formal$ = 16
?__empty_global_delete@@YAXPEAX_K@Z PROC		; __empty_global_delete, COMDAT
; File g:\programming\c++_qt_vs\timingshutdown\generatedfiles\debug\moc_timingshutdown.cpp
; Line 136
	mov	QWORD PTR [rsp+16], rdx
	mov	QWORD PTR [rsp+8], rcx
	ret	0
?__empty_global_delete@@YAXPEAX_K@Z ENDP		; __empty_global_delete
_TEXT	ENDS
; Function compile flags: /Odtp
;	COMDAT ?__empty_global_delete@@YAXPEAX@Z
_TEXT	SEGMENT
__formal$ = 8
?__empty_global_delete@@YAXPEAX@Z PROC			; __empty_global_delete, COMDAT
; File g:\programming\c++_qt_vs\timingshutdown\generatedfiles\debug\moc_timingshutdown.cpp
; Line 136
	mov	QWORD PTR [rsp+8], rcx
	ret	0
?__empty_global_delete@@YAXPEAX@Z ENDP			; __empty_global_delete
_TEXT	ENDS
END
